
/home/primus/work/PMTDyno/pmtDynoV1_2/dist/arduino.elf:     Dateiformat elf32-avr

Sektionen:
Idx Name          Größe     VMA       LMA       Datei-Off Ausr.
  0 .data         000000ca  00800100  00002d16  00002daa  2**0
                  CONTENTS, ALLOC, LOAD, DATA
  1 .text         00002d16  00000000  00000000  00000094  2**1
                  CONTENTS, ALLOC, LOAD, READONLY, CODE
  2 .bss          000000ba  008001ca  008001ca  00002e74  2**0
                  ALLOC
  3 .comment      00000011  00000000  00000000  00002e74  2**0
                  CONTENTS, READONLY
  4 .note.gnu.avr.deviceinfo 00000040  00000000  00000000  00002e88  2**2
                  CONTENTS, READONLY

Disassembly of section .text:

00000000 <__vectors>:
       0:	0c 94 3e 00 	jmp	0x7c	; 0x7c <__ctors_end>
       4:	0c 94 f9 06 	jmp	0xdf2	; 0xdf2 <__vector_1>
       8:	0c 94 5b 00 	jmp	0xb6	; 0xb6 <__bad_interrupt>
       c:	0c 94 5b 00 	jmp	0xb6	; 0xb6 <__bad_interrupt>
      10:	0c 94 5b 00 	jmp	0xb6	; 0xb6 <__bad_interrupt>
      14:	0c 94 5b 00 	jmp	0xb6	; 0xb6 <__bad_interrupt>
      18:	0c 94 5b 00 	jmp	0xb6	; 0xb6 <__bad_interrupt>
      1c:	0c 94 5b 00 	jmp	0xb6	; 0xb6 <__bad_interrupt>
      20:	0c 94 5b 00 	jmp	0xb6	; 0xb6 <__bad_interrupt>
      24:	0c 94 15 08 	jmp	0x102a	; 0x102a <__vector_9>
      28:	0c 94 a7 07 	jmp	0xf4e	; 0xf4e <__vector_10>
      2c:	0c 94 5b 00 	jmp	0xb6	; 0xb6 <__bad_interrupt>
      30:	0c 94 5b 00 	jmp	0xb6	; 0xb6 <__bad_interrupt>
      34:	0c 94 84 07 	jmp	0xf08	; 0xf08 <__vector_13>
      38:	0c 94 5b 00 	jmp	0xb6	; 0xb6 <__bad_interrupt>
      3c:	0c 94 5b 00 	jmp	0xb6	; 0xb6 <__bad_interrupt>
      40:	0c 94 61 07 	jmp	0xec2	; 0xec2 <__vector_16>
      44:	0c 94 5b 00 	jmp	0xb6	; 0xb6 <__bad_interrupt>
      48:	0c 94 b8 10 	jmp	0x2170	; 0x2170 <__vector_18>
      4c:	0c 94 5b 00 	jmp	0xb6	; 0xb6 <__bad_interrupt>
      50:	0c 94 5b 00 	jmp	0xb6	; 0xb6 <__bad_interrupt>
      54:	0c 94 5b 00 	jmp	0xb6	; 0xb6 <__bad_interrupt>
      58:	0c 94 5b 00 	jmp	0xb6	; 0xb6 <__bad_interrupt>
      5c:	0c 94 5b 00 	jmp	0xb6	; 0xb6 <__bad_interrupt>
      60:	0c 94 5b 00 	jmp	0xb6	; 0xb6 <__bad_interrupt>
      64:	0c 94 5b 00 	jmp	0xb6	; 0xb6 <__bad_interrupt>
      68:	5a 0a       	sbc	r5, r26
      6a:	45 0a       	sbc	r4, r21
      6c:	30 0a       	sbc	r3, r16
      6e:	18 0a       	sbc	r1, r24
      70:	00 0a       	sbc	r0, r16
      72:	e8 09       	sbc	r30, r8
      74:	d0 09       	sbc	r29, r0
      76:	b5 09       	sbc	r27, r5
      78:	6f 0a       	sbc	r6, r31
      7a:	4f 09       	sbc	r20, r15

0000007c <__ctors_end>:
      7c:	11 24       	eor	r1, r1
      7e:	1f be       	out	0x3f, r1	; 63
      80:	cf ef       	ldi	r28, 0xFF	; 255
      82:	d8 e0       	ldi	r29, 0x08	; 8
      84:	de bf       	out	0x3e, r29	; 62
      86:	cd bf       	out	0x3d, r28	; 61

00000088 <__do_copy_data>:
      88:	11 e0       	ldi	r17, 0x01	; 1
      8a:	a0 e0       	ldi	r26, 0x00	; 0
      8c:	b1 e0       	ldi	r27, 0x01	; 1
      8e:	e6 e1       	ldi	r30, 0x16	; 22
      90:	fd e2       	ldi	r31, 0x2D	; 45
      92:	02 c0       	rjmp	.+4      	; 0x98 <__do_copy_data+0x10>
      94:	05 90       	lpm	r0, Z+
      96:	0d 92       	st	X+, r0
      98:	aa 3c       	cpi	r26, 0xCA	; 202
      9a:	b1 07       	cpc	r27, r17
      9c:	d9 f7       	brne	.-10     	; 0x94 <__do_copy_data+0xc>

0000009e <__do_clear_bss>:
      9e:	22 e0       	ldi	r18, 0x02	; 2
      a0:	aa ec       	ldi	r26, 0xCA	; 202
      a2:	b1 e0       	ldi	r27, 0x01	; 1
      a4:	01 c0       	rjmp	.+2      	; 0xa8 <.do_clear_bss_start>

000000a6 <.do_clear_bss_loop>:
      a6:	1d 92       	st	X+, r1

000000a8 <.do_clear_bss_start>:
      a8:	a4 38       	cpi	r26, 0x84	; 132
      aa:	b2 07       	cpc	r27, r18
      ac:	e1 f7       	brne	.-8      	; 0xa6 <.do_clear_bss_loop>
      ae:	0e 94 f2 10 	call	0x21e4	; 0x21e4 <main>
      b2:	0c 94 89 16 	jmp	0x2d12	; 0x2d12 <_exit>

000000b6 <__bad_interrupt>:
      b6:	0c 94 00 00 	jmp	0	; 0x0 <__vectors>

000000ba <app_init>:
      ba:	8d e9       	ldi	r24, 0x9D	; 157
      bc:	eb ec       	ldi	r30, 0xCB	; 203
      be:	f1 e0       	ldi	r31, 0x01	; 1
      c0:	df 01       	movw	r26, r30
      c2:	1d 92       	st	X+, r1
      c4:	8a 95       	dec	r24
      c6:	e9 f7       	brne	.-6      	; 0xc2 <app_init+0x8>
      c8:	e1 e8       	ldi	r30, 0x81	; 129
      ca:	f0 e0       	ldi	r31, 0x00	; 0
      cc:	80 81       	ld	r24, Z
      ce:	82 60       	ori	r24, 0x02	; 2
      d0:	80 83       	st	Z, r24
      d2:	85 b5       	in	r24, 0x25	; 37
      d4:	82 60       	ori	r24, 0x02	; 2
      d6:	85 bd       	out	0x25, r24	; 37
      d8:	e1 eb       	ldi	r30, 0xB1	; 177
      da:	f0 e0       	ldi	r31, 0x00	; 0
      dc:	80 81       	ld	r24, Z
      de:	84 60       	ori	r24, 0x04	; 4
      e0:	80 83       	st	Z, r24
      e2:	08 95       	ret

000000e4 <app_incErrCnt>:
      e4:	fc 01       	movw	r30, r24
      e6:	80 81       	ld	r24, Z
      e8:	8f 3f       	cpi	r24, 0xFF	; 255
      ea:	19 f0       	breq	.+6      	; 0xf2 <app_incErrCnt+0xe>
      ec:	80 81       	ld	r24, Z
      ee:	8f 5f       	subi	r24, 0xFF	; 255
      f0:	80 83       	st	Z, r24
      f2:	08 95       	ret

000000f4 <addTimeToTxBuffer>:
      f4:	8f 92       	push	r8
      f6:	9f 92       	push	r9
      f8:	af 92       	push	r10
      fa:	bf 92       	push	r11
      fc:	cf 92       	push	r12
      fe:	df 92       	push	r13
     100:	ef 92       	push	r14
     102:	ff 92       	push	r15
     104:	6b 01       	movw	r12, r22
     106:	7c 01       	movw	r14, r24
     108:	81 e4       	ldi	r24, 0x41	; 65
     10a:	c8 16       	cp	r12, r24
     10c:	82 e4       	ldi	r24, 0x42	; 66
     10e:	d8 06       	cpc	r13, r24
     110:	8f e0       	ldi	r24, 0x0F	; 15
     112:	e8 06       	cpc	r14, r24
     114:	f1 04       	cpc	r15, r1
     116:	08 f0       	brcs	.+2      	; 0x11a <addTimeToTxBuffer+0x26>
     118:	49 c0       	rjmp	.+146    	; 0x1ac <addTimeToTxBuffer+0xb8>
     11a:	c1 14       	cp	r12, r1
     11c:	d1 04       	cpc	r13, r1
     11e:	e1 04       	cpc	r14, r1
     120:	f1 04       	cpc	r15, r1
     122:	01 f5       	brne	.+64     	; 0x164 <addTimeToTxBuffer+0x70>
     124:	8b e0       	ldi	r24, 0x0B	; 11
     126:	92 e0       	ldi	r25, 0x02	; 2
     128:	9f 93       	push	r25
     12a:	8f 93       	push	r24
     12c:	24 e3       	ldi	r18, 0x34	; 52
     12e:	31 e0       	ldi	r19, 0x01	; 1
     130:	3f 93       	push	r19
     132:	2f 93       	push	r18
     134:	1f 92       	push	r1
     136:	20 e4       	ldi	r18, 0x40	; 64
     138:	2f 93       	push	r18
     13a:	9f 93       	push	r25
     13c:	8f 93       	push	r24
     13e:	0e 94 a4 13 	call	0x2748	; 0x2748 <snprintf>
     142:	8d b7       	in	r24, 0x3d	; 61
     144:	9e b7       	in	r25, 0x3e	; 62
     146:	08 96       	adiw	r24, 0x08	; 8
     148:	0f b6       	in	r0, 0x3f	; 63
     14a:	f8 94       	cli
     14c:	9e bf       	out	0x3e, r25	; 62
     14e:	0f be       	out	0x3f, r0	; 63
     150:	8d bf       	out	0x3d, r24	; 61
     152:	ff 90       	pop	r15
     154:	ef 90       	pop	r14
     156:	df 90       	pop	r13
     158:	cf 90       	pop	r12
     15a:	bf 90       	pop	r11
     15c:	af 90       	pop	r10
     15e:	9f 90       	pop	r9
     160:	8f 90       	pop	r8
     162:	08 95       	ret
     164:	c7 01       	movw	r24, r14
     166:	b6 01       	movw	r22, r12
     168:	28 ee       	ldi	r18, 0xE8	; 232
     16a:	33 e0       	ldi	r19, 0x03	; 3
     16c:	40 e0       	ldi	r20, 0x00	; 0
     16e:	50 e0       	ldi	r21, 0x00	; 0
     170:	0e 94 0e 11 	call	0x221c	; 0x221c <__udivmodsi4>
     174:	7f 93       	push	r23
     176:	6f 93       	push	r22
     178:	3f 93       	push	r19
     17a:	2f 93       	push	r18
     17c:	8b e0       	ldi	r24, 0x0B	; 11
     17e:	92 e0       	ldi	r25, 0x02	; 2
     180:	9f 93       	push	r25
     182:	8f 93       	push	r24
     184:	2a e2       	ldi	r18, 0x2A	; 42
     186:	31 e0       	ldi	r19, 0x01	; 1
     188:	3f 93       	push	r19
     18a:	2f 93       	push	r18
     18c:	1f 92       	push	r1
     18e:	20 e4       	ldi	r18, 0x40	; 64
     190:	2f 93       	push	r18
     192:	9f 93       	push	r25
     194:	8f 93       	push	r24
     196:	0e 94 a4 13 	call	0x2748	; 0x2748 <snprintf>
     19a:	8d b7       	in	r24, 0x3d	; 61
     19c:	9e b7       	in	r25, 0x3e	; 62
     19e:	0c 96       	adiw	r24, 0x0c	; 12
     1a0:	0f b6       	in	r0, 0x3f	; 63
     1a2:	f8 94       	cli
     1a4:	9e bf       	out	0x3e, r25	; 62
     1a6:	0f be       	out	0x3f, r0	; 63
     1a8:	8d bf       	out	0x3d, r24	; 61
     1aa:	d3 cf       	rjmp	.-90     	; 0x152 <addTimeToTxBuffer+0x5e>
     1ac:	88 ee       	ldi	r24, 0xE8	; 232
     1ae:	88 2e       	mov	r8, r24
     1b0:	83 e0       	ldi	r24, 0x03	; 3
     1b2:	98 2e       	mov	r9, r24
     1b4:	a1 2c       	mov	r10, r1
     1b6:	b1 2c       	mov	r11, r1
     1b8:	c7 01       	movw	r24, r14
     1ba:	b6 01       	movw	r22, r12
     1bc:	a5 01       	movw	r20, r10
     1be:	94 01       	movw	r18, r8
     1c0:	0e 94 0e 11 	call	0x221c	; 0x221c <__udivmodsi4>
     1c4:	7f 93       	push	r23
     1c6:	6f 93       	push	r22
     1c8:	ca 01       	movw	r24, r20
     1ca:	b9 01       	movw	r22, r18
     1cc:	a5 01       	movw	r20, r10
     1ce:	94 01       	movw	r18, r8
     1d0:	0e 94 0e 11 	call	0x221c	; 0x221c <__udivmodsi4>
     1d4:	7f 93       	push	r23
     1d6:	6f 93       	push	r22
     1d8:	c7 01       	movw	r24, r14
     1da:	b6 01       	movw	r22, r12
     1dc:	20 e4       	ldi	r18, 0x40	; 64
     1de:	32 e4       	ldi	r19, 0x42	; 66
     1e0:	4f e0       	ldi	r20, 0x0F	; 15
     1e2:	50 e0       	ldi	r21, 0x00	; 0
     1e4:	0e 94 0e 11 	call	0x221c	; 0x221c <__udivmodsi4>
     1e8:	3f 93       	push	r19
     1ea:	2f 93       	push	r18
     1ec:	8b e0       	ldi	r24, 0x0B	; 11
     1ee:	92 e0       	ldi	r25, 0x02	; 2
     1f0:	9f 93       	push	r25
     1f2:	8f 93       	push	r24
     1f4:	2c e1       	ldi	r18, 0x1C	; 28
     1f6:	31 e0       	ldi	r19, 0x01	; 1
     1f8:	3f 93       	push	r19
     1fa:	2f 93       	push	r18
     1fc:	1f 92       	push	r1
     1fe:	20 e4       	ldi	r18, 0x40	; 64
     200:	2f 93       	push	r18
     202:	9f 93       	push	r25
     204:	8f 93       	push	r24
     206:	0e 94 a4 13 	call	0x2748	; 0x2748 <snprintf>
     20a:	8d b7       	in	r24, 0x3d	; 61
     20c:	9e b7       	in	r25, 0x3e	; 62
     20e:	0e 96       	adiw	r24, 0x0e	; 14
     210:	0f b6       	in	r0, 0x3f	; 63
     212:	f8 94       	cli
     214:	9e bf       	out	0x3e, r25	; 62
     216:	0f be       	out	0x3f, r0	; 63
     218:	8d bf       	out	0x3d, r24	; 61
     21a:	9b cf       	rjmp	.-202    	; 0x152 <addTimeToTxBuffer+0x5e>

0000021c <addShaftRpmToTxBuffer>:
     21c:	4f 92       	push	r4
     21e:	5f 92       	push	r5
     220:	6f 92       	push	r6
     222:	7f 92       	push	r7
     224:	8f 92       	push	r8
     226:	9f 92       	push	r9
     228:	af 92       	push	r10
     22a:	bf 92       	push	r11
     22c:	cf 92       	push	r12
     22e:	df 92       	push	r13
     230:	ef 92       	push	r14
     232:	ff 92       	push	r15
     234:	0f 93       	push	r16
     236:	1f 93       	push	r17
     238:	cf 93       	push	r28
     23a:	df 93       	push	r29
     23c:	cd b7       	in	r28, 0x3d	; 61
     23e:	de b7       	in	r29, 0x3e	; 62
     240:	2a 97       	sbiw	r28, 0x0a	; 10
     242:	0f b6       	in	r0, 0x3f	; 63
     244:	f8 94       	cli
     246:	de bf       	out	0x3e, r29	; 62
     248:	0f be       	out	0x3f, r0	; 63
     24a:	cd bf       	out	0x3d, r28	; 61
     24c:	19 82       	std	Y+1, r1	; 0x01
     24e:	1a 82       	std	Y+2, r1	; 0x02
     250:	1b 82       	std	Y+3, r1	; 0x03
     252:	1c 82       	std	Y+4, r1	; 0x04
     254:	fe 01       	movw	r30, r28
     256:	35 96       	adiw	r30, 0x05	; 5
     258:	86 e0       	ldi	r24, 0x06	; 6
     25a:	df 01       	movw	r26, r30
     25c:	1d 92       	st	X+, r1
     25e:	8a 95       	dec	r24
     260:	e9 f7       	brne	.-6      	; 0x25c <addShaftRpmToTxBuffer+0x40>
     262:	80 91 54 02 	lds	r24, 0x0254
     266:	90 91 55 02 	lds	r25, 0x0255
     26a:	a0 91 56 02 	lds	r26, 0x0256
     26e:	b0 91 57 02 	lds	r27, 0x0257
     272:	88 3e       	cpi	r24, 0xE8	; 232
     274:	93 40       	sbci	r25, 0x03	; 3
     276:	a1 05       	cpc	r26, r1
     278:	b1 05       	cpc	r27, r1
     27a:	08 f4       	brcc	.+2      	; 0x27e <addShaftRpmToTxBuffer+0x62>
     27c:	c3 c0       	rjmp	.+390    	; 0x404 <addShaftRpmToTxBuffer+0x1e8>
     27e:	80 91 54 02 	lds	r24, 0x0254
     282:	90 91 55 02 	lds	r25, 0x0255
     286:	a0 91 56 02 	lds	r26, 0x0256
     28a:	b0 91 57 02 	lds	r27, 0x0257
     28e:	80 34       	cpi	r24, 0x40	; 64
     290:	92 44       	sbci	r25, 0x42	; 66
     292:	af 40       	sbci	r26, 0x0F	; 15
     294:	b1 05       	cpc	r27, r1
     296:	08 f4       	brcc	.+2      	; 0x29a <addShaftRpmToTxBuffer+0x7e>
     298:	7d c0       	rjmp	.+250    	; 0x394 <addShaftRpmToTxBuffer+0x178>
     29a:	60 91 54 02 	lds	r22, 0x0254
     29e:	70 91 55 02 	lds	r23, 0x0255
     2a2:	80 91 56 02 	lds	r24, 0x0256
     2a6:	90 91 57 02 	lds	r25, 0x0257
     2aa:	40 90 54 02 	lds	r4, 0x0254
     2ae:	50 90 55 02 	lds	r5, 0x0255
     2b2:	60 90 56 02 	lds	r6, 0x0256
     2b6:	70 90 57 02 	lds	r7, 0x0257
     2ba:	80 90 54 02 	lds	r8, 0x0254
     2be:	90 90 55 02 	lds	r9, 0x0255
     2c2:	a0 90 56 02 	lds	r10, 0x0256
     2c6:	b0 90 57 02 	lds	r11, 0x0257
     2ca:	28 ee       	ldi	r18, 0xE8	; 232
     2cc:	c2 2e       	mov	r12, r18
     2ce:	23 e0       	ldi	r18, 0x03	; 3
     2d0:	d2 2e       	mov	r13, r18
     2d2:	e1 2c       	mov	r14, r1
     2d4:	f1 2c       	mov	r15, r1
     2d6:	a7 01       	movw	r20, r14
     2d8:	96 01       	movw	r18, r12
     2da:	0e 94 0e 11 	call	0x221c	; 0x221c <__udivmodsi4>
     2de:	7f 93       	push	r23
     2e0:	6f 93       	push	r22
     2e2:	c3 01       	movw	r24, r6
     2e4:	b2 01       	movw	r22, r4
     2e6:	a7 01       	movw	r20, r14
     2e8:	96 01       	movw	r18, r12
     2ea:	0e 94 0e 11 	call	0x221c	; 0x221c <__udivmodsi4>
     2ee:	ca 01       	movw	r24, r20
     2f0:	b9 01       	movw	r22, r18
     2f2:	a7 01       	movw	r20, r14
     2f4:	96 01       	movw	r18, r12
     2f6:	0e 94 0e 11 	call	0x221c	; 0x221c <__udivmodsi4>
     2fa:	7f 93       	push	r23
     2fc:	6f 93       	push	r22
     2fe:	c5 01       	movw	r24, r10
     300:	b4 01       	movw	r22, r8
     302:	20 e4       	ldi	r18, 0x40	; 64
     304:	32 e4       	ldi	r19, 0x42	; 66
     306:	4f e0       	ldi	r20, 0x0F	; 15
     308:	50 e0       	ldi	r21, 0x00	; 0
     30a:	0e 94 0e 11 	call	0x221c	; 0x221c <__udivmodsi4>
     30e:	3f 93       	push	r19
     310:	2f 93       	push	r18
     312:	83 e4       	ldi	r24, 0x43	; 67
     314:	91 e0       	ldi	r25, 0x01	; 1
     316:	9f 93       	push	r25
     318:	8f 93       	push	r24
     31a:	1f 92       	push	r1
     31c:	8a e0       	ldi	r24, 0x0A	; 10
     31e:	8f 93       	push	r24
     320:	8e 01       	movw	r16, r28
     322:	0f 5f       	subi	r16, 0xFF	; 255
     324:	1f 4f       	sbci	r17, 0xFF	; 255
     326:	1f 93       	push	r17
     328:	0f 93       	push	r16
     32a:	0e 94 a4 13 	call	0x2748	; 0x2748 <snprintf>
     32e:	0f b6       	in	r0, 0x3f	; 63
     330:	f8 94       	cli
     332:	de bf       	out	0x3e, r29	; 62
     334:	0f be       	out	0x3f, r0	; 63
     336:	cd bf       	out	0x3d, r28	; 61
     338:	1f 93       	push	r17
     33a:	0f 93       	push	r16
     33c:	1f 92       	push	r1
     33e:	82 e0       	ldi	r24, 0x02	; 2
     340:	8f 93       	push	r24
     342:	8e e4       	ldi	r24, 0x4E	; 78
     344:	91 e0       	ldi	r25, 0x01	; 1
     346:	9f 93       	push	r25
     348:	8f 93       	push	r24
     34a:	1f 92       	push	r1
     34c:	80 e4       	ldi	r24, 0x40	; 64
     34e:	8f 93       	push	r24
     350:	8b e0       	ldi	r24, 0x0B	; 11
     352:	92 e0       	ldi	r25, 0x02	; 2
     354:	9f 93       	push	r25
     356:	8f 93       	push	r24
     358:	0e 94 a4 13 	call	0x2748	; 0x2748 <snprintf>
     35c:	0f b6       	in	r0, 0x3f	; 63
     35e:	f8 94       	cli
     360:	de bf       	out	0x3e, r29	; 62
     362:	0f be       	out	0x3f, r0	; 63
     364:	cd bf       	out	0x3d, r28	; 61
     366:	2a 96       	adiw	r28, 0x0a	; 10
     368:	0f b6       	in	r0, 0x3f	; 63
     36a:	f8 94       	cli
     36c:	de bf       	out	0x3e, r29	; 62
     36e:	0f be       	out	0x3f, r0	; 63
     370:	cd bf       	out	0x3d, r28	; 61
     372:	df 91       	pop	r29
     374:	cf 91       	pop	r28
     376:	1f 91       	pop	r17
     378:	0f 91       	pop	r16
     37a:	ff 90       	pop	r15
     37c:	ef 90       	pop	r14
     37e:	df 90       	pop	r13
     380:	cf 90       	pop	r12
     382:	bf 90       	pop	r11
     384:	af 90       	pop	r10
     386:	9f 90       	pop	r9
     388:	8f 90       	pop	r8
     38a:	7f 90       	pop	r7
     38c:	6f 90       	pop	r6
     38e:	5f 90       	pop	r5
     390:	4f 90       	pop	r4
     392:	08 95       	ret
     394:	60 91 54 02 	lds	r22, 0x0254
     398:	70 91 55 02 	lds	r23, 0x0255
     39c:	80 91 56 02 	lds	r24, 0x0256
     3a0:	90 91 57 02 	lds	r25, 0x0257
     3a4:	80 90 54 02 	lds	r8, 0x0254
     3a8:	90 90 55 02 	lds	r9, 0x0255
     3ac:	a0 90 56 02 	lds	r10, 0x0256
     3b0:	b0 90 57 02 	lds	r11, 0x0257
     3b4:	38 ee       	ldi	r19, 0xE8	; 232
     3b6:	c3 2e       	mov	r12, r19
     3b8:	33 e0       	ldi	r19, 0x03	; 3
     3ba:	d3 2e       	mov	r13, r19
     3bc:	e1 2c       	mov	r14, r1
     3be:	f1 2c       	mov	r15, r1
     3c0:	a7 01       	movw	r20, r14
     3c2:	96 01       	movw	r18, r12
     3c4:	0e 94 0e 11 	call	0x221c	; 0x221c <__udivmodsi4>
     3c8:	7f 93       	push	r23
     3ca:	6f 93       	push	r22
     3cc:	c5 01       	movw	r24, r10
     3ce:	b4 01       	movw	r22, r8
     3d0:	a7 01       	movw	r20, r14
     3d2:	96 01       	movw	r18, r12
     3d4:	0e 94 0e 11 	call	0x221c	; 0x221c <__udivmodsi4>
     3d8:	3f 93       	push	r19
     3da:	2f 93       	push	r18
     3dc:	8c e3       	ldi	r24, 0x3C	; 60
     3de:	91 e0       	ldi	r25, 0x01	; 1
     3e0:	9f 93       	push	r25
     3e2:	8f 93       	push	r24
     3e4:	1f 92       	push	r1
     3e6:	8a e0       	ldi	r24, 0x0A	; 10
     3e8:	8f 93       	push	r24
     3ea:	8e 01       	movw	r16, r28
     3ec:	0f 5f       	subi	r16, 0xFF	; 255
     3ee:	1f 4f       	sbci	r17, 0xFF	; 255
     3f0:	1f 93       	push	r17
     3f2:	0f 93       	push	r16
     3f4:	0e 94 a4 13 	call	0x2748	; 0x2748 <snprintf>
     3f8:	0f b6       	in	r0, 0x3f	; 63
     3fa:	f8 94       	cli
     3fc:	de bf       	out	0x3e, r29	; 62
     3fe:	0f be       	out	0x3f, r0	; 63
     400:	cd bf       	out	0x3d, r28	; 61
     402:	9a cf       	rjmp	.-204    	; 0x338 <addShaftRpmToTxBuffer+0x11c>
     404:	80 91 54 02 	lds	r24, 0x0254
     408:	90 91 55 02 	lds	r25, 0x0255
     40c:	a0 91 56 02 	lds	r26, 0x0256
     410:	b0 91 57 02 	lds	r27, 0x0257
     414:	9f 93       	push	r25
     416:	8f 93       	push	r24
     418:	89 e3       	ldi	r24, 0x39	; 57
     41a:	91 e0       	ldi	r25, 0x01	; 1
     41c:	9f 93       	push	r25
     41e:	8f 93       	push	r24
     420:	1f 92       	push	r1
     422:	8a e0       	ldi	r24, 0x0A	; 10
     424:	8f 93       	push	r24
     426:	8e 01       	movw	r16, r28
     428:	0f 5f       	subi	r16, 0xFF	; 255
     42a:	1f 4f       	sbci	r17, 0xFF	; 255
     42c:	1f 93       	push	r17
     42e:	0f 93       	push	r16
     430:	0e 94 a4 13 	call	0x2748	; 0x2748 <snprintf>
     434:	0f b6       	in	r0, 0x3f	; 63
     436:	f8 94       	cli
     438:	de bf       	out	0x3e, r29	; 62
     43a:	0f be       	out	0x3f, r0	; 63
     43c:	cd bf       	out	0x3d, r28	; 61
     43e:	7c cf       	rjmp	.-264    	; 0x338 <addShaftRpmToTxBuffer+0x11c>

00000440 <addRpmsToTxBuffer>:
     440:	4f 92       	push	r4
     442:	5f 92       	push	r5
     444:	6f 92       	push	r6
     446:	7f 92       	push	r7
     448:	8f 92       	push	r8
     44a:	9f 92       	push	r9
     44c:	af 92       	push	r10
     44e:	bf 92       	push	r11
     450:	cf 92       	push	r12
     452:	df 92       	push	r13
     454:	ef 92       	push	r14
     456:	ff 92       	push	r15
     458:	0f 93       	push	r16
     45a:	1f 93       	push	r17
     45c:	cf 93       	push	r28
     45e:	df 93       	push	r29
     460:	cd b7       	in	r28, 0x3d	; 61
     462:	de b7       	in	r29, 0x3e	; 62
     464:	64 97       	sbiw	r28, 0x14	; 20
     466:	0f b6       	in	r0, 0x3f	; 63
     468:	f8 94       	cli
     46a:	de bf       	out	0x3e, r29	; 62
     46c:	0f be       	out	0x3f, r0	; 63
     46e:	cd bf       	out	0x3d, r28	; 61
     470:	1b 86       	std	Y+11, r1	; 0x0b
     472:	1c 86       	std	Y+12, r1	; 0x0c
     474:	1d 86       	std	Y+13, r1	; 0x0d
     476:	1e 86       	std	Y+14, r1	; 0x0e
     478:	86 e0       	ldi	r24, 0x06	; 6
     47a:	fe 01       	movw	r30, r28
     47c:	3f 96       	adiw	r30, 0x0f	; 15
     47e:	df 01       	movw	r26, r30
     480:	28 2f       	mov	r18, r24
     482:	1d 92       	st	X+, r1
     484:	2a 95       	dec	r18
     486:	e9 f7       	brne	.-6      	; 0x482 <addRpmsToTxBuffer+0x42>
     488:	19 82       	std	Y+1, r1	; 0x01
     48a:	1a 82       	std	Y+2, r1	; 0x02
     48c:	1b 82       	std	Y+3, r1	; 0x03
     48e:	1c 82       	std	Y+4, r1	; 0x04
     490:	3a 97       	sbiw	r30, 0x0a	; 10
     492:	df 01       	movw	r26, r30
     494:	1d 92       	st	X+, r1
     496:	8a 95       	dec	r24
     498:	e9 f7       	brne	.-6      	; 0x494 <addRpmsToTxBuffer+0x54>
     49a:	80 91 50 02 	lds	r24, 0x0250
     49e:	90 91 51 02 	lds	r25, 0x0251
     4a2:	a0 91 52 02 	lds	r26, 0x0252
     4a6:	b0 91 53 02 	lds	r27, 0x0253
     4aa:	81 34       	cpi	r24, 0x41	; 65
     4ac:	92 44       	sbci	r25, 0x42	; 66
     4ae:	af 40       	sbci	r26, 0x0F	; 15
     4b0:	b1 05       	cpc	r27, r1
     4b2:	08 f0       	brcs	.+2      	; 0x4b6 <addRpmsToTxBuffer+0x76>
     4b4:	04 c1       	rjmp	.+520    	; 0x6be <addRpmsToTxBuffer+0x27e>
     4b6:	80 91 50 02 	lds	r24, 0x0250
     4ba:	90 91 51 02 	lds	r25, 0x0251
     4be:	a0 91 52 02 	lds	r26, 0x0252
     4c2:	b0 91 53 02 	lds	r27, 0x0253
     4c6:	89 3e       	cpi	r24, 0xE9	; 233
     4c8:	93 40       	sbci	r25, 0x03	; 3
     4ca:	a1 05       	cpc	r26, r1
     4cc:	b1 05       	cpc	r27, r1
     4ce:	08 f0       	brcs	.+2      	; 0x4d2 <addRpmsToTxBuffer+0x92>
     4d0:	86 c0       	rjmp	.+268    	; 0x5de <addRpmsToTxBuffer+0x19e>
     4d2:	80 91 50 02 	lds	r24, 0x0250
     4d6:	90 91 51 02 	lds	r25, 0x0251
     4da:	a0 91 52 02 	lds	r26, 0x0252
     4de:	b0 91 53 02 	lds	r27, 0x0253
     4e2:	9f 93       	push	r25
     4e4:	8f 93       	push	r24
     4e6:	89 e3       	ldi	r24, 0x39	; 57
     4e8:	91 e0       	ldi	r25, 0x01	; 1
     4ea:	9f 93       	push	r25
     4ec:	8f 93       	push	r24
     4ee:	1f 92       	push	r1
     4f0:	8a e0       	ldi	r24, 0x0A	; 10
     4f2:	8f 93       	push	r24
     4f4:	8e 01       	movw	r16, r28
     4f6:	05 5f       	subi	r16, 0xF5	; 245
     4f8:	1f 4f       	sbci	r17, 0xFF	; 255
     4fa:	1f 93       	push	r17
     4fc:	0f 93       	push	r16
     4fe:	0e 94 a4 13 	call	0x2748	; 0x2748 <snprintf>
     502:	0f b6       	in	r0, 0x3f	; 63
     504:	f8 94       	cli
     506:	de bf       	out	0x3e, r29	; 62
     508:	0f be       	out	0x3f, r0	; 63
     50a:	cd bf       	out	0x3d, r28	; 61
     50c:	80 91 54 02 	lds	r24, 0x0254
     510:	90 91 55 02 	lds	r25, 0x0255
     514:	a0 91 56 02 	lds	r26, 0x0256
     518:	b0 91 57 02 	lds	r27, 0x0257
     51c:	81 34       	cpi	r24, 0x41	; 65
     51e:	92 44       	sbci	r25, 0x42	; 66
     520:	af 40       	sbci	r26, 0x0F	; 15
     522:	b1 05       	cpc	r27, r1
     524:	08 f0       	brcs	.+2      	; 0x528 <addRpmsToTxBuffer+0xe8>
     526:	1b c1       	rjmp	.+566    	; 0x75e <addRpmsToTxBuffer+0x31e>
     528:	80 91 54 02 	lds	r24, 0x0254
     52c:	90 91 55 02 	lds	r25, 0x0255
     530:	a0 91 56 02 	lds	r26, 0x0256
     534:	b0 91 57 02 	lds	r27, 0x0257
     538:	89 3e       	cpi	r24, 0xE9	; 233
     53a:	93 40       	sbci	r25, 0x03	; 3
     53c:	a1 05       	cpc	r26, r1
     53e:	b1 05       	cpc	r27, r1
     540:	08 f0       	brcs	.+2      	; 0x544 <addRpmsToTxBuffer+0x104>
     542:	85 c0       	rjmp	.+266    	; 0x64e <addRpmsToTxBuffer+0x20e>
     544:	80 91 54 02 	lds	r24, 0x0254
     548:	90 91 55 02 	lds	r25, 0x0255
     54c:	a0 91 56 02 	lds	r26, 0x0256
     550:	b0 91 57 02 	lds	r27, 0x0257
     554:	9f 93       	push	r25
     556:	8f 93       	push	r24
     558:	89 e3       	ldi	r24, 0x39	; 57
     55a:	91 e0       	ldi	r25, 0x01	; 1
     55c:	9f 93       	push	r25
     55e:	8f 93       	push	r24
     560:	1f 92       	push	r1
     562:	8a e0       	ldi	r24, 0x0A	; 10
     564:	8f 93       	push	r24
     566:	ce 01       	movw	r24, r28
     568:	01 96       	adiw	r24, 0x01	; 1
     56a:	7c 01       	movw	r14, r24
     56c:	9f 93       	push	r25
     56e:	8f 93       	push	r24
     570:	0e 94 a4 13 	call	0x2748	; 0x2748 <snprintf>
     574:	0f b6       	in	r0, 0x3f	; 63
     576:	f8 94       	cli
     578:	de bf       	out	0x3e, r29	; 62
     57a:	0f be       	out	0x3f, r0	; 63
     57c:	cd bf       	out	0x3d, r28	; 61
     57e:	1f 93       	push	r17
     580:	0f 93       	push	r16
     582:	ff 92       	push	r15
     584:	ef 92       	push	r14
     586:	1f 92       	push	r1
     588:	82 e0       	ldi	r24, 0x02	; 2
     58a:	8f 93       	push	r24
     58c:	84 e5       	ldi	r24, 0x54	; 84
     58e:	91 e0       	ldi	r25, 0x01	; 1
     590:	9f 93       	push	r25
     592:	8f 93       	push	r24
     594:	1f 92       	push	r1
     596:	80 e4       	ldi	r24, 0x40	; 64
     598:	8f 93       	push	r24
     59a:	8b e0       	ldi	r24, 0x0B	; 11
     59c:	92 e0       	ldi	r25, 0x02	; 2
     59e:	9f 93       	push	r25
     5a0:	8f 93       	push	r24
     5a2:	0e 94 a4 13 	call	0x2748	; 0x2748 <snprintf>
     5a6:	0f b6       	in	r0, 0x3f	; 63
     5a8:	f8 94       	cli
     5aa:	de bf       	out	0x3e, r29	; 62
     5ac:	0f be       	out	0x3f, r0	; 63
     5ae:	cd bf       	out	0x3d, r28	; 61
     5b0:	64 96       	adiw	r28, 0x14	; 20
     5b2:	0f b6       	in	r0, 0x3f	; 63
     5b4:	f8 94       	cli
     5b6:	de bf       	out	0x3e, r29	; 62
     5b8:	0f be       	out	0x3f, r0	; 63
     5ba:	cd bf       	out	0x3d, r28	; 61
     5bc:	df 91       	pop	r29
     5be:	cf 91       	pop	r28
     5c0:	1f 91       	pop	r17
     5c2:	0f 91       	pop	r16
     5c4:	ff 90       	pop	r15
     5c6:	ef 90       	pop	r14
     5c8:	df 90       	pop	r13
     5ca:	cf 90       	pop	r12
     5cc:	bf 90       	pop	r11
     5ce:	af 90       	pop	r10
     5d0:	9f 90       	pop	r9
     5d2:	8f 90       	pop	r8
     5d4:	7f 90       	pop	r7
     5d6:	6f 90       	pop	r6
     5d8:	5f 90       	pop	r5
     5da:	4f 90       	pop	r4
     5dc:	08 95       	ret
     5de:	60 91 50 02 	lds	r22, 0x0250
     5e2:	70 91 51 02 	lds	r23, 0x0251
     5e6:	80 91 52 02 	lds	r24, 0x0252
     5ea:	90 91 53 02 	lds	r25, 0x0253
     5ee:	80 90 50 02 	lds	r8, 0x0250
     5f2:	90 90 51 02 	lds	r9, 0x0251
     5f6:	a0 90 52 02 	lds	r10, 0x0252
     5fa:	b0 90 53 02 	lds	r11, 0x0253
     5fe:	48 ee       	ldi	r20, 0xE8	; 232
     600:	c4 2e       	mov	r12, r20
     602:	43 e0       	ldi	r20, 0x03	; 3
     604:	d4 2e       	mov	r13, r20
     606:	e1 2c       	mov	r14, r1
     608:	f1 2c       	mov	r15, r1
     60a:	a7 01       	movw	r20, r14
     60c:	96 01       	movw	r18, r12
     60e:	0e 94 0e 11 	call	0x221c	; 0x221c <__udivmodsi4>
     612:	7f 93       	push	r23
     614:	6f 93       	push	r22
     616:	c5 01       	movw	r24, r10
     618:	b4 01       	movw	r22, r8
     61a:	a7 01       	movw	r20, r14
     61c:	96 01       	movw	r18, r12
     61e:	0e 94 0e 11 	call	0x221c	; 0x221c <__udivmodsi4>
     622:	3f 93       	push	r19
     624:	2f 93       	push	r18
     626:	8c e3       	ldi	r24, 0x3C	; 60
     628:	91 e0       	ldi	r25, 0x01	; 1
     62a:	9f 93       	push	r25
     62c:	8f 93       	push	r24
     62e:	1f 92       	push	r1
     630:	8a e0       	ldi	r24, 0x0A	; 10
     632:	8f 93       	push	r24
     634:	8e 01       	movw	r16, r28
     636:	05 5f       	subi	r16, 0xF5	; 245
     638:	1f 4f       	sbci	r17, 0xFF	; 255
     63a:	1f 93       	push	r17
     63c:	0f 93       	push	r16
     63e:	0e 94 a4 13 	call	0x2748	; 0x2748 <snprintf>
     642:	0f b6       	in	r0, 0x3f	; 63
     644:	f8 94       	cli
     646:	de bf       	out	0x3e, r29	; 62
     648:	0f be       	out	0x3f, r0	; 63
     64a:	cd bf       	out	0x3d, r28	; 61
     64c:	5f cf       	rjmp	.-322    	; 0x50c <addRpmsToTxBuffer+0xcc>
     64e:	60 91 54 02 	lds	r22, 0x0254
     652:	70 91 55 02 	lds	r23, 0x0255
     656:	80 91 56 02 	lds	r24, 0x0256
     65a:	90 91 57 02 	lds	r25, 0x0257
     65e:	80 90 54 02 	lds	r8, 0x0254
     662:	90 90 55 02 	lds	r9, 0x0255
     666:	a0 90 56 02 	lds	r10, 0x0256
     66a:	b0 90 57 02 	lds	r11, 0x0257
     66e:	28 ee       	ldi	r18, 0xE8	; 232
     670:	c2 2e       	mov	r12, r18
     672:	23 e0       	ldi	r18, 0x03	; 3
     674:	d2 2e       	mov	r13, r18
     676:	e1 2c       	mov	r14, r1
     678:	f1 2c       	mov	r15, r1
     67a:	a7 01       	movw	r20, r14
     67c:	96 01       	movw	r18, r12
     67e:	0e 94 0e 11 	call	0x221c	; 0x221c <__udivmodsi4>
     682:	7f 93       	push	r23
     684:	6f 93       	push	r22
     686:	c5 01       	movw	r24, r10
     688:	b4 01       	movw	r22, r8
     68a:	a7 01       	movw	r20, r14
     68c:	96 01       	movw	r18, r12
     68e:	0e 94 0e 11 	call	0x221c	; 0x221c <__udivmodsi4>
     692:	3f 93       	push	r19
     694:	2f 93       	push	r18
     696:	8c e3       	ldi	r24, 0x3C	; 60
     698:	91 e0       	ldi	r25, 0x01	; 1
     69a:	9f 93       	push	r25
     69c:	8f 93       	push	r24
     69e:	1f 92       	push	r1
     6a0:	8a e0       	ldi	r24, 0x0A	; 10
     6a2:	8f 93       	push	r24
     6a4:	ce 01       	movw	r24, r28
     6a6:	01 96       	adiw	r24, 0x01	; 1
     6a8:	7c 01       	movw	r14, r24
     6aa:	9f 93       	push	r25
     6ac:	8f 93       	push	r24
     6ae:	0e 94 a4 13 	call	0x2748	; 0x2748 <snprintf>
     6b2:	0f b6       	in	r0, 0x3f	; 63
     6b4:	f8 94       	cli
     6b6:	de bf       	out	0x3e, r29	; 62
     6b8:	0f be       	out	0x3f, r0	; 63
     6ba:	cd bf       	out	0x3d, r28	; 61
     6bc:	60 cf       	rjmp	.-320    	; 0x57e <addRpmsToTxBuffer+0x13e>
     6be:	60 91 50 02 	lds	r22, 0x0250
     6c2:	70 91 51 02 	lds	r23, 0x0251
     6c6:	80 91 52 02 	lds	r24, 0x0252
     6ca:	90 91 53 02 	lds	r25, 0x0253
     6ce:	40 90 50 02 	lds	r4, 0x0250
     6d2:	50 90 51 02 	lds	r5, 0x0251
     6d6:	60 90 52 02 	lds	r6, 0x0252
     6da:	70 90 53 02 	lds	r7, 0x0253
     6de:	80 90 50 02 	lds	r8, 0x0250
     6e2:	90 90 51 02 	lds	r9, 0x0251
     6e6:	a0 90 52 02 	lds	r10, 0x0252
     6ea:	b0 90 53 02 	lds	r11, 0x0253
     6ee:	58 ee       	ldi	r21, 0xE8	; 232
     6f0:	c5 2e       	mov	r12, r21
     6f2:	53 e0       	ldi	r21, 0x03	; 3
     6f4:	d5 2e       	mov	r13, r21
     6f6:	e1 2c       	mov	r14, r1
     6f8:	f1 2c       	mov	r15, r1
     6fa:	a7 01       	movw	r20, r14
     6fc:	96 01       	movw	r18, r12
     6fe:	0e 94 0e 11 	call	0x221c	; 0x221c <__udivmodsi4>
     702:	7f 93       	push	r23
     704:	6f 93       	push	r22
     706:	c3 01       	movw	r24, r6
     708:	b2 01       	movw	r22, r4
     70a:	a7 01       	movw	r20, r14
     70c:	96 01       	movw	r18, r12
     70e:	0e 94 0e 11 	call	0x221c	; 0x221c <__udivmodsi4>
     712:	ca 01       	movw	r24, r20
     714:	b9 01       	movw	r22, r18
     716:	a7 01       	movw	r20, r14
     718:	96 01       	movw	r18, r12
     71a:	0e 94 0e 11 	call	0x221c	; 0x221c <__udivmodsi4>
     71e:	7f 93       	push	r23
     720:	6f 93       	push	r22
     722:	c5 01       	movw	r24, r10
     724:	b4 01       	movw	r22, r8
     726:	20 e4       	ldi	r18, 0x40	; 64
     728:	32 e4       	ldi	r19, 0x42	; 66
     72a:	4f e0       	ldi	r20, 0x0F	; 15
     72c:	50 e0       	ldi	r21, 0x00	; 0
     72e:	0e 94 0e 11 	call	0x221c	; 0x221c <__udivmodsi4>
     732:	3f 93       	push	r19
     734:	2f 93       	push	r18
     736:	83 e4       	ldi	r24, 0x43	; 67
     738:	91 e0       	ldi	r25, 0x01	; 1
     73a:	9f 93       	push	r25
     73c:	8f 93       	push	r24
     73e:	1f 92       	push	r1
     740:	8a e0       	ldi	r24, 0x0A	; 10
     742:	8f 93       	push	r24
     744:	8e 01       	movw	r16, r28
     746:	05 5f       	subi	r16, 0xF5	; 245
     748:	1f 4f       	sbci	r17, 0xFF	; 255
     74a:	1f 93       	push	r17
     74c:	0f 93       	push	r16
     74e:	0e 94 a4 13 	call	0x2748	; 0x2748 <snprintf>
     752:	0f b6       	in	r0, 0x3f	; 63
     754:	f8 94       	cli
     756:	de bf       	out	0x3e, r29	; 62
     758:	0f be       	out	0x3f, r0	; 63
     75a:	cd bf       	out	0x3d, r28	; 61
     75c:	d7 ce       	rjmp	.-594    	; 0x50c <addRpmsToTxBuffer+0xcc>
     75e:	60 91 54 02 	lds	r22, 0x0254
     762:	70 91 55 02 	lds	r23, 0x0255
     766:	80 91 56 02 	lds	r24, 0x0256
     76a:	90 91 57 02 	lds	r25, 0x0257
     76e:	40 90 54 02 	lds	r4, 0x0254
     772:	50 90 55 02 	lds	r5, 0x0255
     776:	60 90 56 02 	lds	r6, 0x0256
     77a:	70 90 57 02 	lds	r7, 0x0257
     77e:	80 90 54 02 	lds	r8, 0x0254
     782:	90 90 55 02 	lds	r9, 0x0255
     786:	a0 90 56 02 	lds	r10, 0x0256
     78a:	b0 90 57 02 	lds	r11, 0x0257
     78e:	38 ee       	ldi	r19, 0xE8	; 232
     790:	c3 2e       	mov	r12, r19
     792:	33 e0       	ldi	r19, 0x03	; 3
     794:	d3 2e       	mov	r13, r19
     796:	e1 2c       	mov	r14, r1
     798:	f1 2c       	mov	r15, r1
     79a:	a7 01       	movw	r20, r14
     79c:	96 01       	movw	r18, r12
     79e:	0e 94 0e 11 	call	0x221c	; 0x221c <__udivmodsi4>
     7a2:	7f 93       	push	r23
     7a4:	6f 93       	push	r22
     7a6:	c3 01       	movw	r24, r6
     7a8:	b2 01       	movw	r22, r4
     7aa:	a7 01       	movw	r20, r14
     7ac:	96 01       	movw	r18, r12
     7ae:	0e 94 0e 11 	call	0x221c	; 0x221c <__udivmodsi4>
     7b2:	ca 01       	movw	r24, r20
     7b4:	b9 01       	movw	r22, r18
     7b6:	a7 01       	movw	r20, r14
     7b8:	96 01       	movw	r18, r12
     7ba:	0e 94 0e 11 	call	0x221c	; 0x221c <__udivmodsi4>
     7be:	7f 93       	push	r23
     7c0:	6f 93       	push	r22
     7c2:	c5 01       	movw	r24, r10
     7c4:	b4 01       	movw	r22, r8
     7c6:	20 e4       	ldi	r18, 0x40	; 64
     7c8:	32 e4       	ldi	r19, 0x42	; 66
     7ca:	4f e0       	ldi	r20, 0x0F	; 15
     7cc:	50 e0       	ldi	r21, 0x00	; 0
     7ce:	0e 94 0e 11 	call	0x221c	; 0x221c <__udivmodsi4>
     7d2:	3f 93       	push	r19
     7d4:	2f 93       	push	r18
     7d6:	83 e4       	ldi	r24, 0x43	; 67
     7d8:	91 e0       	ldi	r25, 0x01	; 1
     7da:	9f 93       	push	r25
     7dc:	8f 93       	push	r24
     7de:	1f 92       	push	r1
     7e0:	8a e0       	ldi	r24, 0x0A	; 10
     7e2:	8f 93       	push	r24
     7e4:	ce 01       	movw	r24, r28
     7e6:	01 96       	adiw	r24, 0x01	; 1
     7e8:	7c 01       	movw	r14, r24
     7ea:	9f 93       	push	r25
     7ec:	8f 93       	push	r24
     7ee:	0e 94 a4 13 	call	0x2748	; 0x2748 <snprintf>
     7f2:	0f b6       	in	r0, 0x3f	; 63
     7f4:	f8 94       	cli
     7f6:	de bf       	out	0x3e, r29	; 62
     7f8:	0f be       	out	0x3f, r0	; 63
     7fa:	cd bf       	out	0x3d, r28	; 61
     7fc:	c0 ce       	rjmp	.-640    	; 0x57e <addRpmsToTxBuffer+0x13e>

000007fe <addConditionsToTxBuffer>:
     7fe:	3f 93       	push	r19
     800:	2f 93       	push	r18
     802:	1f 92       	push	r1
     804:	4f 93       	push	r20
     806:	1f 92       	push	r1
     808:	6f 93       	push	r22
     80a:	1f 92       	push	r1
     80c:	8f 93       	push	r24
     80e:	1f 92       	push	r1
     810:	82 e0       	ldi	r24, 0x02	; 2
     812:	8f 93       	push	r24
     814:	8d e5       	ldi	r24, 0x5D	; 93
     816:	91 e0       	ldi	r25, 0x01	; 1
     818:	9f 93       	push	r25
     81a:	8f 93       	push	r24
     81c:	1f 92       	push	r1
     81e:	80 e4       	ldi	r24, 0x40	; 64
     820:	8f 93       	push	r24
     822:	8b e0       	ldi	r24, 0x0B	; 11
     824:	92 e0       	ldi	r25, 0x02	; 2
     826:	9f 93       	push	r25
     828:	8f 93       	push	r24
     82a:	0e 94 a4 13 	call	0x2748	; 0x2748 <snprintf>
     82e:	8d b7       	in	r24, 0x3d	; 61
     830:	9e b7       	in	r25, 0x3e	; 62
     832:	40 96       	adiw	r24, 0x10	; 16
     834:	0f b6       	in	r0, 0x3f	; 63
     836:	f8 94       	cli
     838:	9e bf       	out	0x3e, r25	; 62
     83a:	0f be       	out	0x3f, r0	; 63
     83c:	8d bf       	out	0x3d, r24	; 61
     83e:	08 95       	ret

00000840 <getActualTime>:
     840:	20 91 b2 00 	lds	r18, 0x00B2
     844:	80 91 60 02 	lds	r24, 0x0260
     848:	90 91 61 02 	lds	r25, 0x0261
     84c:	a0 91 62 02 	lds	r26, 0x0262
     850:	b0 91 63 02 	lds	r27, 0x0263
     854:	ba 2f       	mov	r27, r26
     856:	a9 2f       	mov	r26, r25
     858:	98 2f       	mov	r25, r24
     85a:	88 27       	eor	r24, r24
     85c:	82 0f       	add	r24, r18
     85e:	91 1d       	adc	r25, r1
     860:	a1 1d       	adc	r26, r1
     862:	b1 1d       	adc	r27, r1
     864:	bc 01       	movw	r22, r24
     866:	cd 01       	movw	r24, r26
     868:	66 0f       	add	r22, r22
     86a:	77 1f       	adc	r23, r23
     86c:	88 1f       	adc	r24, r24
     86e:	99 1f       	adc	r25, r25
     870:	66 0f       	add	r22, r22
     872:	77 1f       	adc	r23, r23
     874:	88 1f       	adc	r24, r24
     876:	99 1f       	adc	r25, r25
     878:	08 95       	ret

0000087a <calculateCRC>:
     87a:	61 15       	cp	r22, r1
     87c:	71 05       	cpc	r23, r1
     87e:	71 f1       	breq	.+92     	; 0x8dc <calculateCRC+0x62>
     880:	41 15       	cp	r20, r1
     882:	51 05       	cpc	r21, r1
     884:	59 f1       	breq	.+86     	; 0x8dc <calculateCRC+0x62>
     886:	fb 01       	movw	r30, r22
     888:	46 0f       	add	r20, r22
     88a:	57 1f       	adc	r21, r23
     88c:	38 2f       	mov	r19, r24
     88e:	29 2f       	mov	r18, r25
     890:	81 91       	ld	r24, Z+
     892:	08 2e       	mov	r0, r24
     894:	00 0c       	add	r0, r0
     896:	99 0b       	sbc	r25, r25
     898:	82 27       	eor	r24, r18
     89a:	93 27       	eor	r25, r19
     89c:	9c 01       	movw	r18, r24
     89e:	33 27       	eor	r19, r19
     8a0:	32 95       	swap	r19
     8a2:	22 95       	swap	r18
     8a4:	2f 70       	andi	r18, 0x0F	; 15
     8a6:	23 27       	eor	r18, r19
     8a8:	3f 70       	andi	r19, 0x0F	; 15
     8aa:	23 27       	eor	r18, r19
     8ac:	28 27       	eor	r18, r24
     8ae:	39 27       	eor	r19, r25
     8b0:	c9 01       	movw	r24, r18
     8b2:	98 2f       	mov	r25, r24
     8b4:	88 27       	eor	r24, r24
     8b6:	92 95       	swap	r25
     8b8:	90 7f       	andi	r25, 0xF0	; 240
     8ba:	28 27       	eor	r18, r24
     8bc:	39 27       	eor	r19, r25
     8be:	c9 01       	movw	r24, r18
     8c0:	99 27       	eor	r25, r25
     8c2:	88 0f       	add	r24, r24
     8c4:	99 1f       	adc	r25, r25
     8c6:	82 95       	swap	r24
     8c8:	92 95       	swap	r25
     8ca:	90 7f       	andi	r25, 0xF0	; 240
     8cc:	98 27       	eor	r25, r24
     8ce:	80 7f       	andi	r24, 0xF0	; 240
     8d0:	98 27       	eor	r25, r24
     8d2:	82 27       	eor	r24, r18
     8d4:	93 27       	eor	r25, r19
     8d6:	e4 17       	cp	r30, r20
     8d8:	f5 07       	cpc	r31, r21
     8da:	c1 f6       	brne	.-80     	; 0x88c <calculateCRC+0x12>
     8dc:	08 95       	ret

000008de <getEcoSystem>:
     8de:	0f 93       	push	r16
     8e0:	1f 93       	push	r17
     8e2:	cf 93       	push	r28
     8e4:	df 93       	push	r29
     8e6:	cd b7       	in	r28, 0x3d	; 61
     8e8:	de b7       	in	r29, 0x3e	; 62
     8ea:	2d 97       	sbiw	r28, 0x0d	; 13
     8ec:	0f b6       	in	r0, 0x3f	; 63
     8ee:	f8 94       	cli
     8f0:	de bf       	out	0x3e, r29	; 62
     8f2:	0f be       	out	0x3f, r0	; 63
     8f4:	cd bf       	out	0x3d, r28	; 61
     8f6:	19 82       	std	Y+1, r1	; 0x01
     8f8:	1a 82       	std	Y+2, r1	; 0x02
     8fa:	1b 82       	std	Y+3, r1	; 0x03
     8fc:	1c 82       	std	Y+4, r1	; 0x04
     8fe:	fe 01       	movw	r30, r28
     900:	35 96       	adiw	r30, 0x05	; 5
     902:	86 e0       	ldi	r24, 0x06	; 6
     904:	df 01       	movw	r26, r30
     906:	1d 92       	st	X+, r1
     908:	8a 95       	dec	r24
     90a:	e9 f7       	brne	.-6      	; 0x906 <__stack+0x7>
     90c:	ae 01       	movw	r20, r28
     90e:	45 5f       	subi	r20, 0xF5	; 245
     910:	5f 4f       	sbci	r21, 0xFF	; 255
     912:	be 01       	movw	r22, r28
     914:	64 5f       	subi	r22, 0xF4	; 244
     916:	7f 4f       	sbci	r23, 0xFF	; 255
     918:	ce 01       	movw	r24, r28
     91a:	0d 96       	adiw	r24, 0x0d	; 13
     91c:	0e 94 87 0e 	call	0x1d0e	; 0x1d0e <dht22>
     920:	2a e0       	ldi	r18, 0x0A	; 10
     922:	30 e0       	ldi	r19, 0x00	; 0
     924:	8e 01       	movw	r16, r28
     926:	0f 5f       	subi	r16, 0xFF	; 255
     928:	1f 4f       	sbci	r17, 0xFF	; 255
     92a:	a8 01       	movw	r20, r16
     92c:	be 01       	movw	r22, r28
     92e:	64 5f       	subi	r22, 0xF4	; 244
     930:	7f 4f       	sbci	r23, 0xFF	; 255
     932:	ce 01       	movw	r24, r28
     934:	0d 96       	adiw	r24, 0x0d	; 13
     936:	0e 94 bd 0d 	call	0x1b7a	; 0x1b7a <getBmp180Values>
     93a:	1f 93       	push	r17
     93c:	0f 93       	push	r16
     93e:	8b 85       	ldd	r24, Y+11	; 0x0b
     940:	1f 92       	push	r1
     942:	8f 93       	push	r24
     944:	8c 85       	ldd	r24, Y+12	; 0x0c
     946:	1f 92       	push	r1
     948:	8f 93       	push	r24
     94a:	8d 85       	ldd	r24, Y+13	; 0x0d
     94c:	1f 92       	push	r1
     94e:	8f 93       	push	r24
     950:	1f 92       	push	r1
     952:	82 e0       	ldi	r24, 0x02	; 2
     954:	8f 93       	push	r24
     956:	8d e5       	ldi	r24, 0x5D	; 93
     958:	91 e0       	ldi	r25, 0x01	; 1
     95a:	9f 93       	push	r25
     95c:	8f 93       	push	r24
     95e:	1f 92       	push	r1
     960:	80 e4       	ldi	r24, 0x40	; 64
     962:	8f 93       	push	r24
     964:	0b e0       	ldi	r16, 0x0B	; 11
     966:	12 e0       	ldi	r17, 0x02	; 2
     968:	1f 93       	push	r17
     96a:	0f 93       	push	r16
     96c:	0e 94 a4 13 	call	0x2748	; 0x2748 <snprintf>
     970:	f8 01       	movw	r30, r16
     972:	01 90       	ld	r0, Z+
     974:	00 20       	and	r0, r0
     976:	e9 f7       	brne	.-6      	; 0x972 <__stack+0x73>
     978:	af 01       	movw	r20, r30
     97a:	4c 50       	subi	r20, 0x0C	; 12
     97c:	52 40       	sbci	r21, 0x02	; 2
     97e:	b8 01       	movw	r22, r16
     980:	8f ef       	ldi	r24, 0xFF	; 255
     982:	9f ef       	ldi	r25, 0xFF	; 255
     984:	0e 94 3d 04 	call	0x87a	; 0x87a <calculateCRC>
     988:	1f 92       	push	r1
     98a:	23 e0       	ldi	r18, 0x03	; 3
     98c:	2f 93       	push	r18
     98e:	9f 93       	push	r25
     990:	8f 93       	push	r24
     992:	1f 93       	push	r17
     994:	0f 93       	push	r16
     996:	8c e6       	ldi	r24, 0x6C	; 108
     998:	91 e0       	ldi	r25, 0x01	; 1
     99a:	9f 93       	push	r25
     99c:	8f 93       	push	r24
     99e:	0e 94 8e 13 	call	0x271c	; 0x271c <printf>
     9a2:	f8 01       	movw	r30, r16
     9a4:	01 90       	ld	r0, Z+
     9a6:	00 20       	and	r0, r0
     9a8:	e9 f7       	brne	.-6      	; 0x9a4 <__stack+0xa5>
     9aa:	af 01       	movw	r20, r30
     9ac:	4c 50       	subi	r20, 0x0C	; 12
     9ae:	52 40       	sbci	r21, 0x02	; 2
     9b0:	0f b6       	in	r0, 0x3f	; 63
     9b2:	f8 94       	cli
     9b4:	de bf       	out	0x3e, r29	; 62
     9b6:	0f be       	out	0x3f, r0	; 63
     9b8:	cd bf       	out	0x3d, r28	; 61
     9ba:	60 e0       	ldi	r22, 0x00	; 0
     9bc:	70 e0       	ldi	r23, 0x00	; 0
     9be:	c8 01       	movw	r24, r16
     9c0:	2d 96       	adiw	r28, 0x0d	; 13
     9c2:	0f b6       	in	r0, 0x3f	; 63
     9c4:	f8 94       	cli
     9c6:	de bf       	out	0x3e, r29	; 62
     9c8:	0f be       	out	0x3f, r0	; 63
     9ca:	cd bf       	out	0x3d, r28	; 61
     9cc:	df 91       	pop	r29
     9ce:	cf 91       	pop	r28
     9d0:	1f 91       	pop	r17
     9d2:	0f 91       	pop	r16
     9d4:	0c 94 87 13 	jmp	0x270e	; 0x270e <memset>

000009d8 <startSpeedMeasure>:
     9d8:	cf 92       	push	r12
     9da:	df 92       	push	r13
     9dc:	ef 92       	push	r14
     9de:	ff 92       	push	r15
     9e0:	cf 93       	push	r28
     9e2:	df 93       	push	r29
     9e4:	6b 01       	movw	r12, r22
     9e6:	7c 01       	movw	r14, r24
     9e8:	81 e0       	ldi	r24, 0x01	; 1
     9ea:	80 93 67 02 	sts	0x0267, r24
     9ee:	80 91 81 00 	lds	r24, 0x0081
     9f2:	8f 7b       	andi	r24, 0xBF	; 191
     9f4:	80 93 81 00 	sts	0x0081, r24
     9f8:	80 91 6f 00 	lds	r24, 0x006F
     9fc:	81 62       	ori	r24, 0x21	; 33
     9fe:	80 93 6f 00 	sts	0x006F, r24
     a02:	80 91 67 02 	lds	r24, 0x0267
     a06:	81 11       	cpse	r24, r1
     a08:	05 c0       	rjmp	.+10     	; 0xa14 <startSpeedMeasure+0x3c>
     a0a:	80 91 66 02 	lds	r24, 0x0266
     a0e:	88 23       	and	r24, r24
     a10:	09 f4       	brne	.+2      	; 0xa14 <startSpeedMeasure+0x3c>
     a12:	48 c0       	rjmp	.+144    	; 0xaa4 <startSpeedMeasure+0xcc>
     a14:	20 91 b2 00 	lds	r18, 0x00B2
     a18:	80 91 60 02 	lds	r24, 0x0260
     a1c:	90 91 61 02 	lds	r25, 0x0261
     a20:	a0 91 62 02 	lds	r26, 0x0262
     a24:	b0 91 63 02 	lds	r27, 0x0263
     a28:	ba 2f       	mov	r27, r26
     a2a:	a9 2f       	mov	r26, r25
     a2c:	98 2f       	mov	r25, r24
     a2e:	88 27       	eor	r24, r24
     a30:	82 0f       	add	r24, r18
     a32:	91 1d       	adc	r25, r1
     a34:	a1 1d       	adc	r26, r1
     a36:	b1 1d       	adc	r27, r1
     a38:	88 0f       	add	r24, r24
     a3a:	99 1f       	adc	r25, r25
     a3c:	aa 1f       	adc	r26, r26
     a3e:	bb 1f       	adc	r27, r27
     a40:	88 0f       	add	r24, r24
     a42:	99 1f       	adc	r25, r25
     a44:	aa 1f       	adc	r26, r26
     a46:	bb 1f       	adc	r27, r27
     a48:	8c 19       	sub	r24, r12
     a4a:	9d 09       	sbc	r25, r13
     a4c:	ae 09       	sbc	r26, r14
     a4e:	bf 09       	sbc	r27, r15
     a50:	81 32       	cpi	r24, 0x21	; 33
     a52:	91 4a       	sbci	r25, 0xA1	; 161
     a54:	a7 40       	sbci	r26, 0x07	; 7
     a56:	b1 05       	cpc	r27, r1
     a58:	a0 f2       	brcs	.-88     	; 0xa02 <startSpeedMeasure+0x2a>
     a5a:	f8 94       	cli
     a5c:	10 92 65 02 	sts	0x0265, r1
     a60:	80 91 81 00 	lds	r24, 0x0081
     a64:	8f 7b       	andi	r24, 0xBF	; 191
     a66:	80 93 81 00 	sts	0x0081, r24
     a6a:	80 91 6f 00 	lds	r24, 0x006F
     a6e:	8f 7d       	andi	r24, 0xDF	; 223
     a70:	80 93 6f 00 	sts	0x006F, r24
     a74:	10 92 67 02 	sts	0x0267, r1
     a78:	10 92 54 02 	sts	0x0254, r1
     a7c:	10 92 55 02 	sts	0x0255, r1
     a80:	10 92 56 02 	sts	0x0256, r1
     a84:	10 92 57 02 	sts	0x0257, r1
     a88:	10 92 87 00 	sts	0x0087, r1
     a8c:	10 92 86 00 	sts	0x0086, r1
     a90:	10 92 5c 02 	sts	0x025C, r1
     a94:	10 92 5d 02 	sts	0x025D, r1
     a98:	10 92 5e 02 	sts	0x025E, r1
     a9c:	10 92 5f 02 	sts	0x025F, r1
     aa0:	78 94       	sei
     aa2:	af cf       	rjmp	.-162    	; 0xa02 <startSpeedMeasure+0x2a>
     aa4:	0e 94 0e 01 	call	0x21c	; 0x21c <addShaftRpmToTxBuffer>
     aa8:	c7 01       	movw	r24, r14
     aaa:	b6 01       	movw	r22, r12
     aac:	0e 94 7a 00 	call	0xf4	; 0xf4 <addTimeToTxBuffer>
     ab0:	cb e0       	ldi	r28, 0x0B	; 11
     ab2:	d2 e0       	ldi	r29, 0x02	; 2
     ab4:	fe 01       	movw	r30, r28
     ab6:	01 90       	ld	r0, Z+
     ab8:	00 20       	and	r0, r0
     aba:	e9 f7       	brne	.-6      	; 0xab6 <startSpeedMeasure+0xde>
     abc:	af 01       	movw	r20, r30
     abe:	4c 50       	subi	r20, 0x0C	; 12
     ac0:	52 40       	sbci	r21, 0x02	; 2
     ac2:	be 01       	movw	r22, r28
     ac4:	8f ef       	ldi	r24, 0xFF	; 255
     ac6:	9f ef       	ldi	r25, 0xFF	; 255
     ac8:	0e 94 3d 04 	call	0x87a	; 0x87a <calculateCRC>
     acc:	1f 92       	push	r1
     ace:	23 e0       	ldi	r18, 0x03	; 3
     ad0:	2f 93       	push	r18
     ad2:	9f 93       	push	r25
     ad4:	8f 93       	push	r24
     ad6:	df 93       	push	r29
     ad8:	cf 93       	push	r28
     ada:	8c e6       	ldi	r24, 0x6C	; 108
     adc:	91 e0       	ldi	r25, 0x01	; 1
     ade:	9f 93       	push	r25
     ae0:	8f 93       	push	r24
     ae2:	0e 94 8e 13 	call	0x271c	; 0x271c <printf>
     ae6:	09 90       	ld	r0, Y+
     ae8:	00 20       	and	r0, r0
     aea:	e9 f7       	brne	.-6      	; 0xae6 <startSpeedMeasure+0x10e>
     aec:	ae 01       	movw	r20, r28
     aee:	4c 50       	subi	r20, 0x0C	; 12
     af0:	52 40       	sbci	r21, 0x02	; 2
     af2:	8d b7       	in	r24, 0x3d	; 61
     af4:	9e b7       	in	r25, 0x3e	; 62
     af6:	08 96       	adiw	r24, 0x08	; 8
     af8:	0f b6       	in	r0, 0x3f	; 63
     afa:	f8 94       	cli
     afc:	9e bf       	out	0x3e, r25	; 62
     afe:	0f be       	out	0x3f, r0	; 63
     b00:	8d bf       	out	0x3d, r24	; 61
     b02:	60 e0       	ldi	r22, 0x00	; 0
     b04:	70 e0       	ldi	r23, 0x00	; 0
     b06:	8b e0       	ldi	r24, 0x0B	; 11
     b08:	92 e0       	ldi	r25, 0x02	; 2
     b0a:	df 91       	pop	r29
     b0c:	cf 91       	pop	r28
     b0e:	ff 90       	pop	r15
     b10:	ef 90       	pop	r14
     b12:	df 90       	pop	r13
     b14:	cf 90       	pop	r12
     b16:	0c 94 87 13 	jmp	0x270e	; 0x270e <memset>

00000b1a <startRpmMeasure>:
     b1a:	cf 92       	push	r12
     b1c:	df 92       	push	r13
     b1e:	ef 92       	push	r14
     b20:	ff 92       	push	r15
     b22:	cf 93       	push	r28
     b24:	df 93       	push	r29
     b26:	6b 01       	movw	r12, r22
     b28:	7c 01       	movw	r14, r24
     b2a:	81 e0       	ldi	r24, 0x01	; 1
     b2c:	80 93 67 02 	sts	0x0267, r24
     b30:	80 93 66 02 	sts	0x0266, r24
     b34:	10 92 64 02 	sts	0x0264, r1
     b38:	10 92 65 02 	sts	0x0265, r1
     b3c:	80 91 81 00 	lds	r24, 0x0081
     b40:	8f 7b       	andi	r24, 0xBF	; 191
     b42:	80 93 81 00 	sts	0x0081, r24
     b46:	80 91 6f 00 	lds	r24, 0x006F
     b4a:	81 62       	ori	r24, 0x21	; 33
     b4c:	80 93 6f 00 	sts	0x006F, r24
     b50:	80 91 69 00 	lds	r24, 0x0069
     b54:	82 60       	ori	r24, 0x02	; 2
     b56:	80 93 69 00 	sts	0x0069, r24
     b5a:	80 91 6e 00 	lds	r24, 0x006E
     b5e:	81 60       	ori	r24, 0x01	; 1
     b60:	80 93 6e 00 	sts	0x006E, r24
     b64:	e8 9a       	sbi	0x1d, 0	; 29
     b66:	80 91 67 02 	lds	r24, 0x0267
     b6a:	81 11       	cpse	r24, r1
     b6c:	05 c0       	rjmp	.+10     	; 0xb78 <startRpmMeasure+0x5e>
     b6e:	80 91 66 02 	lds	r24, 0x0266
     b72:	88 23       	and	r24, r24
     b74:	09 f4       	brne	.+2      	; 0xb78 <startRpmMeasure+0x5e>
     b76:	70 c0       	rjmp	.+224    	; 0xc58 <startRpmMeasure+0x13e>
     b78:	20 91 b2 00 	lds	r18, 0x00B2
     b7c:	80 91 60 02 	lds	r24, 0x0260
     b80:	90 91 61 02 	lds	r25, 0x0261
     b84:	a0 91 62 02 	lds	r26, 0x0262
     b88:	b0 91 63 02 	lds	r27, 0x0263
     b8c:	ba 2f       	mov	r27, r26
     b8e:	a9 2f       	mov	r26, r25
     b90:	98 2f       	mov	r25, r24
     b92:	88 27       	eor	r24, r24
     b94:	82 0f       	add	r24, r18
     b96:	91 1d       	adc	r25, r1
     b98:	a1 1d       	adc	r26, r1
     b9a:	b1 1d       	adc	r27, r1
     b9c:	88 0f       	add	r24, r24
     b9e:	99 1f       	adc	r25, r25
     ba0:	aa 1f       	adc	r26, r26
     ba2:	bb 1f       	adc	r27, r27
     ba4:	88 0f       	add	r24, r24
     ba6:	99 1f       	adc	r25, r25
     ba8:	aa 1f       	adc	r26, r26
     baa:	bb 1f       	adc	r27, r27
     bac:	8c 19       	sub	r24, r12
     bae:	9d 09       	sbc	r25, r13
     bb0:	ae 09       	sbc	r26, r14
     bb2:	bf 09       	sbc	r27, r15
     bb4:	81 32       	cpi	r24, 0x21	; 33
     bb6:	91 4a       	sbci	r25, 0xA1	; 161
     bb8:	a7 40       	sbci	r26, 0x07	; 7
     bba:	b1 05       	cpc	r27, r1
     bbc:	a0 f2       	brcs	.-88     	; 0xb66 <startRpmMeasure+0x4c>
     bbe:	f8 94       	cli
     bc0:	80 91 6e 00 	lds	r24, 0x006E
     bc4:	8e 7f       	andi	r24, 0xFE	; 254
     bc6:	80 93 6e 00 	sts	0x006E, r24
     bca:	e8 98       	cbi	0x1d, 0	; 29
     bcc:	10 92 64 02 	sts	0x0264, r1
     bd0:	80 91 69 00 	lds	r24, 0x0069
     bd4:	8e 7f       	andi	r24, 0xFE	; 254
     bd6:	80 93 69 00 	sts	0x0069, r24
     bda:	10 92 65 02 	sts	0x0265, r1
     bde:	80 91 81 00 	lds	r24, 0x0081
     be2:	8f 7b       	andi	r24, 0xBF	; 191
     be4:	80 93 81 00 	sts	0x0081, r24
     be8:	80 91 6f 00 	lds	r24, 0x006F
     bec:	8f 7d       	andi	r24, 0xDF	; 223
     bee:	80 93 6f 00 	sts	0x006F, r24
     bf2:	80 91 67 02 	lds	r24, 0x0267
     bf6:	88 23       	and	r24, r24
     bf8:	b1 f0       	breq	.+44     	; 0xc26 <startRpmMeasure+0x10c>
     bfa:	10 92 67 02 	sts	0x0267, r1
     bfe:	10 92 54 02 	sts	0x0254, r1
     c02:	10 92 55 02 	sts	0x0255, r1
     c06:	10 92 56 02 	sts	0x0256, r1
     c0a:	10 92 57 02 	sts	0x0257, r1
     c0e:	10 92 87 00 	sts	0x0087, r1
     c12:	10 92 86 00 	sts	0x0086, r1
     c16:	10 92 5c 02 	sts	0x025C, r1
     c1a:	10 92 5d 02 	sts	0x025D, r1
     c1e:	10 92 5e 02 	sts	0x025E, r1
     c22:	10 92 5f 02 	sts	0x025F, r1
     c26:	80 91 66 02 	lds	r24, 0x0266
     c2a:	88 23       	and	r24, r24
     c2c:	99 f0       	breq	.+38     	; 0xc54 <startRpmMeasure+0x13a>
     c2e:	10 92 50 02 	sts	0x0250, r1
     c32:	10 92 51 02 	sts	0x0251, r1
     c36:	10 92 52 02 	sts	0x0252, r1
     c3a:	10 92 53 02 	sts	0x0253, r1
     c3e:	10 92 66 02 	sts	0x0266, r1
     c42:	16 bc       	out	0x26, r1	; 38
     c44:	10 92 58 02 	sts	0x0258, r1
     c48:	10 92 59 02 	sts	0x0259, r1
     c4c:	10 92 5a 02 	sts	0x025A, r1
     c50:	10 92 5b 02 	sts	0x025B, r1
     c54:	78 94       	sei
     c56:	87 cf       	rjmp	.-242    	; 0xb66 <startRpmMeasure+0x4c>
     c58:	0e 94 20 02 	call	0x440	; 0x440 <addRpmsToTxBuffer>
     c5c:	c7 01       	movw	r24, r14
     c5e:	b6 01       	movw	r22, r12
     c60:	0e 94 7a 00 	call	0xf4	; 0xf4 <addTimeToTxBuffer>
     c64:	cb e0       	ldi	r28, 0x0B	; 11
     c66:	d2 e0       	ldi	r29, 0x02	; 2
     c68:	fe 01       	movw	r30, r28
     c6a:	01 90       	ld	r0, Z+
     c6c:	00 20       	and	r0, r0
     c6e:	e9 f7       	brne	.-6      	; 0xc6a <startRpmMeasure+0x150>
     c70:	af 01       	movw	r20, r30
     c72:	4c 50       	subi	r20, 0x0C	; 12
     c74:	52 40       	sbci	r21, 0x02	; 2
     c76:	be 01       	movw	r22, r28
     c78:	8f ef       	ldi	r24, 0xFF	; 255
     c7a:	9f ef       	ldi	r25, 0xFF	; 255
     c7c:	0e 94 3d 04 	call	0x87a	; 0x87a <calculateCRC>
     c80:	1f 92       	push	r1
     c82:	23 e0       	ldi	r18, 0x03	; 3
     c84:	2f 93       	push	r18
     c86:	9f 93       	push	r25
     c88:	8f 93       	push	r24
     c8a:	df 93       	push	r29
     c8c:	cf 93       	push	r28
     c8e:	8c e6       	ldi	r24, 0x6C	; 108
     c90:	91 e0       	ldi	r25, 0x01	; 1
     c92:	9f 93       	push	r25
     c94:	8f 93       	push	r24
     c96:	0e 94 8e 13 	call	0x271c	; 0x271c <printf>
     c9a:	09 90       	ld	r0, Y+
     c9c:	00 20       	and	r0, r0
     c9e:	e9 f7       	brne	.-6      	; 0xc9a <startRpmMeasure+0x180>
     ca0:	ae 01       	movw	r20, r28
     ca2:	4c 50       	subi	r20, 0x0C	; 12
     ca4:	52 40       	sbci	r21, 0x02	; 2
     ca6:	8d b7       	in	r24, 0x3d	; 61
     ca8:	9e b7       	in	r25, 0x3e	; 62
     caa:	08 96       	adiw	r24, 0x08	; 8
     cac:	0f b6       	in	r0, 0x3f	; 63
     cae:	f8 94       	cli
     cb0:	9e bf       	out	0x3e, r25	; 62
     cb2:	0f be       	out	0x3f, r0	; 63
     cb4:	8d bf       	out	0x3d, r24	; 61
     cb6:	60 e0       	ldi	r22, 0x00	; 0
     cb8:	70 e0       	ldi	r23, 0x00	; 0
     cba:	8b e0       	ldi	r24, 0x0B	; 11
     cbc:	92 e0       	ldi	r25, 0x02	; 2
     cbe:	df 91       	pop	r29
     cc0:	cf 91       	pop	r28
     cc2:	ff 90       	pop	r15
     cc4:	ef 90       	pop	r14
     cc6:	df 90       	pop	r13
     cc8:	cf 90       	pop	r12
     cca:	0c 94 87 13 	jmp	0x270e	; 0x270e <memset>

00000cce <app_main>:
     cce:	81 e0       	ldi	r24, 0x01	; 1
     cd0:	0e 94 8b 10 	call	0x2116	; 0x2116 <sys_clearEvent>
     cd4:	88 23       	and	r24, r24
     cd6:	e9 f0       	breq	.+58     	; 0xd12 <app_main+0x44>
     cd8:	80 91 cb 01 	lds	r24, 0x01CB
     cdc:	8d 36       	cpi	r24, 0x6D	; 109
     cde:	c9 f1       	breq	.+114    	; 0xd52 <app_main+0x84>
     ce0:	80 91 cb 01 	lds	r24, 0x01CB
     ce4:	82 37       	cpi	r24, 0x72	; 114
     ce6:	b1 f0       	breq	.+44     	; 0xd14 <app_main+0x46>
     ce8:	80 91 cb 01 	lds	r24, 0x01CB
     cec:	83 37       	cpi	r24, 0x73	; 115
     cee:	09 f4       	brne	.+2      	; 0xcf2 <app_main+0x24>
     cf0:	4f c0       	rjmp	.+158    	; 0xd90 <app_main+0xc2>
     cf2:	80 91 cb 01 	lds	r24, 0x01CB
     cf6:	87 36       	cpi	r24, 0x67	; 103
     cf8:	09 f4       	brne	.+2      	; 0xcfc <app_main+0x2e>
     cfa:	61 c0       	rjmp	.+194    	; 0xdbe <app_main+0xf0>
     cfc:	80 91 cb 01 	lds	r24, 0x01CB
     d00:	85 36       	cpi	r24, 0x65	; 101
     d02:	09 f4       	brne	.+2      	; 0xd06 <app_main+0x38>
     d04:	73 c0       	rjmp	.+230    	; 0xdec <app_main+0x11e>
     d06:	f8 94       	cli
     d08:	10 92 4c 02 	sts	0x024C, r1
     d0c:	10 92 4b 02 	sts	0x024B, r1
     d10:	78 94       	sei
     d12:	08 95       	ret
     d14:	20 91 b2 00 	lds	r18, 0x00B2
     d18:	80 91 60 02 	lds	r24, 0x0260
     d1c:	90 91 61 02 	lds	r25, 0x0261
     d20:	a0 91 62 02 	lds	r26, 0x0262
     d24:	b0 91 63 02 	lds	r27, 0x0263
     d28:	ba 2f       	mov	r27, r26
     d2a:	a9 2f       	mov	r26, r25
     d2c:	98 2f       	mov	r25, r24
     d2e:	88 27       	eor	r24, r24
     d30:	82 0f       	add	r24, r18
     d32:	91 1d       	adc	r25, r1
     d34:	a1 1d       	adc	r26, r1
     d36:	b1 1d       	adc	r27, r1
     d38:	bc 01       	movw	r22, r24
     d3a:	cd 01       	movw	r24, r26
     d3c:	66 0f       	add	r22, r22
     d3e:	77 1f       	adc	r23, r23
     d40:	88 1f       	adc	r24, r24
     d42:	99 1f       	adc	r25, r25
     d44:	66 0f       	add	r22, r22
     d46:	77 1f       	adc	r23, r23
     d48:	88 1f       	adc	r24, r24
     d4a:	99 1f       	adc	r25, r25
     d4c:	0e 94 ec 04 	call	0x9d8	; 0x9d8 <startSpeedMeasure>
     d50:	da cf       	rjmp	.-76     	; 0xd06 <app_main+0x38>
     d52:	20 91 b2 00 	lds	r18, 0x00B2
     d56:	80 91 60 02 	lds	r24, 0x0260
     d5a:	90 91 61 02 	lds	r25, 0x0261
     d5e:	a0 91 62 02 	lds	r26, 0x0262
     d62:	b0 91 63 02 	lds	r27, 0x0263
     d66:	ba 2f       	mov	r27, r26
     d68:	a9 2f       	mov	r26, r25
     d6a:	98 2f       	mov	r25, r24
     d6c:	88 27       	eor	r24, r24
     d6e:	82 0f       	add	r24, r18
     d70:	91 1d       	adc	r25, r1
     d72:	a1 1d       	adc	r26, r1
     d74:	b1 1d       	adc	r27, r1
     d76:	bc 01       	movw	r22, r24
     d78:	cd 01       	movw	r24, r26
     d7a:	66 0f       	add	r22, r22
     d7c:	77 1f       	adc	r23, r23
     d7e:	88 1f       	adc	r24, r24
     d80:	99 1f       	adc	r25, r25
     d82:	66 0f       	add	r22, r22
     d84:	77 1f       	adc	r23, r23
     d86:	88 1f       	adc	r24, r24
     d88:	99 1f       	adc	r25, r25
     d8a:	0e 94 8d 05 	call	0xb1a	; 0xb1a <startRpmMeasure>
     d8e:	bb cf       	rjmp	.-138    	; 0xd06 <app_main+0x38>
     d90:	f8 94       	cli
     d92:	10 92 b2 00 	sts	0x00B2, r1
     d96:	10 92 60 02 	sts	0x0260, r1
     d9a:	10 92 61 02 	sts	0x0261, r1
     d9e:	10 92 62 02 	sts	0x0262, r1
     da2:	10 92 63 02 	sts	0x0263, r1
     da6:	80 91 70 00 	lds	r24, 0x0070
     daa:	81 60       	ori	r24, 0x01	; 1
     dac:	80 93 70 00 	sts	0x0070, r24
     db0:	78 94       	sei
     db2:	60 e0       	ldi	r22, 0x00	; 0
     db4:	70 e0       	ldi	r23, 0x00	; 0
     db6:	cb 01       	movw	r24, r22
     db8:	0e 94 8d 05 	call	0xb1a	; 0xb1a <startRpmMeasure>
     dbc:	a4 cf       	rjmp	.-184    	; 0xd06 <app_main+0x38>
     dbe:	f8 94       	cli
     dc0:	10 92 b2 00 	sts	0x00B2, r1
     dc4:	10 92 60 02 	sts	0x0260, r1
     dc8:	10 92 61 02 	sts	0x0261, r1
     dcc:	10 92 62 02 	sts	0x0262, r1
     dd0:	10 92 63 02 	sts	0x0263, r1
     dd4:	80 91 70 00 	lds	r24, 0x0070
     dd8:	81 60       	ori	r24, 0x01	; 1
     dda:	80 93 70 00 	sts	0x0070, r24
     dde:	78 94       	sei
     de0:	60 e0       	ldi	r22, 0x00	; 0
     de2:	70 e0       	ldi	r23, 0x00	; 0
     de4:	cb 01       	movw	r24, r22
     de6:	0e 94 ec 04 	call	0x9d8	; 0x9d8 <startSpeedMeasure>
     dea:	8d cf       	rjmp	.-230    	; 0xd06 <app_main+0x38>
     dec:	0e 94 6f 04 	call	0x8de	; 0x8de <getEcoSystem>
     df0:	8a cf       	rjmp	.-236    	; 0xd06 <app_main+0x38>

00000df2 <__vector_1>:
     df2:	1f 92       	push	r1
     df4:	0f 92       	push	r0
     df6:	0f b6       	in	r0, 0x3f	; 63
     df8:	0f 92       	push	r0
     dfa:	11 24       	eor	r1, r1
     dfc:	2f 93       	push	r18
     dfe:	8f 93       	push	r24
     e00:	9f 93       	push	r25
     e02:	af 93       	push	r26
     e04:	bf 93       	push	r27
     e06:	80 91 64 02 	lds	r24, 0x0264
     e0a:	88 23       	and	r24, r24
     e0c:	09 f4       	brne	.+2      	; 0xe10 <__vector_1+0x1e>
     e0e:	3d c0       	rjmp	.+122    	; 0xe8a <__vector_1+0x98>
     e10:	80 91 64 02 	lds	r24, 0x0264
     e14:	81 30       	cpi	r24, 0x01	; 1
     e16:	09 f4       	brne	.+2      	; 0xe1a <__vector_1+0x28>
     e18:	43 c0       	rjmp	.+134    	; 0xea0 <__vector_1+0xae>
     e1a:	f8 94       	cli
     e1c:	80 91 6e 00 	lds	r24, 0x006E
     e20:	8e 7f       	andi	r24, 0xFE	; 254
     e22:	80 93 6e 00 	sts	0x006E, r24
     e26:	e8 98       	cbi	0x1d, 0	; 29
     e28:	26 b5       	in	r18, 0x26	; 38
     e2a:	80 91 58 02 	lds	r24, 0x0258
     e2e:	90 91 59 02 	lds	r25, 0x0259
     e32:	a0 91 5a 02 	lds	r26, 0x025A
     e36:	b0 91 5b 02 	lds	r27, 0x025B
     e3a:	ba 2f       	mov	r27, r26
     e3c:	a9 2f       	mov	r26, r25
     e3e:	98 2f       	mov	r25, r24
     e40:	88 27       	eor	r24, r24
     e42:	82 0f       	add	r24, r18
     e44:	91 1d       	adc	r25, r1
     e46:	a1 1d       	adc	r26, r1
     e48:	b1 1d       	adc	r27, r1
     e4a:	b6 95       	lsr	r27
     e4c:	a7 95       	ror	r26
     e4e:	97 95       	ror	r25
     e50:	87 95       	ror	r24
     e52:	80 93 50 02 	sts	0x0250, r24
     e56:	90 93 51 02 	sts	0x0251, r25
     e5a:	a0 93 52 02 	sts	0x0252, r26
     e5e:	b0 93 53 02 	sts	0x0253, r27
     e62:	10 92 64 02 	sts	0x0264, r1
     e66:	10 92 66 02 	sts	0x0266, r1
     e6a:	80 91 69 00 	lds	r24, 0x0069
     e6e:	8e 7f       	andi	r24, 0xFE	; 254
     e70:	80 93 69 00 	sts	0x0069, r24
     e74:	78 94       	sei
     e76:	bf 91       	pop	r27
     e78:	af 91       	pop	r26
     e7a:	9f 91       	pop	r25
     e7c:	8f 91       	pop	r24
     e7e:	2f 91       	pop	r18
     e80:	0f 90       	pop	r0
     e82:	0f be       	out	0x3f, r0	; 63
     e84:	0f 90       	pop	r0
     e86:	1f 90       	pop	r1
     e88:	18 95       	reti
     e8a:	80 91 69 00 	lds	r24, 0x0069
     e8e:	83 60       	ori	r24, 0x03	; 3
     e90:	80 93 69 00 	sts	0x0069, r24
     e94:	80 91 64 02 	lds	r24, 0x0264
     e98:	8f 5f       	subi	r24, 0xFF	; 255
     e9a:	80 93 64 02 	sts	0x0264, r24
     e9e:	eb cf       	rjmp	.-42     	; 0xe76 <__vector_1+0x84>
     ea0:	f8 94       	cli
     ea2:	16 bc       	out	0x26, r1	; 38
     ea4:	10 92 58 02 	sts	0x0258, r1
     ea8:	10 92 59 02 	sts	0x0259, r1
     eac:	10 92 5a 02 	sts	0x025A, r1
     eb0:	10 92 5b 02 	sts	0x025B, r1
     eb4:	78 94       	sei
     eb6:	80 91 64 02 	lds	r24, 0x0264
     eba:	8f 5f       	subi	r24, 0xFF	; 255
     ebc:	80 93 64 02 	sts	0x0264, r24
     ec0:	da cf       	rjmp	.-76     	; 0xe76 <__vector_1+0x84>

00000ec2 <__vector_16>:
     ec2:	1f 92       	push	r1
     ec4:	0f 92       	push	r0
     ec6:	0f b6       	in	r0, 0x3f	; 63
     ec8:	0f 92       	push	r0
     eca:	11 24       	eor	r1, r1
     ecc:	8f 93       	push	r24
     ece:	9f 93       	push	r25
     ed0:	af 93       	push	r26
     ed2:	bf 93       	push	r27
     ed4:	ef 93       	push	r30
     ed6:	ff 93       	push	r31
     ed8:	e8 e5       	ldi	r30, 0x58	; 88
     eda:	f2 e0       	ldi	r31, 0x02	; 2
     edc:	80 81       	ld	r24, Z
     ede:	91 81       	ldd	r25, Z+1	; 0x01
     ee0:	a2 81       	ldd	r26, Z+2	; 0x02
     ee2:	b3 81       	ldd	r27, Z+3	; 0x03
     ee4:	01 96       	adiw	r24, 0x01	; 1
     ee6:	a1 1d       	adc	r26, r1
     ee8:	b1 1d       	adc	r27, r1
     eea:	80 83       	st	Z, r24
     eec:	91 83       	std	Z+1, r25	; 0x01
     eee:	a2 83       	std	Z+2, r26	; 0x02
     ef0:	b3 83       	std	Z+3, r27	; 0x03
     ef2:	ff 91       	pop	r31
     ef4:	ef 91       	pop	r30
     ef6:	bf 91       	pop	r27
     ef8:	af 91       	pop	r26
     efa:	9f 91       	pop	r25
     efc:	8f 91       	pop	r24
     efe:	0f 90       	pop	r0
     f00:	0f be       	out	0x3f, r0	; 63
     f02:	0f 90       	pop	r0
     f04:	1f 90       	pop	r1
     f06:	18 95       	reti

00000f08 <__vector_13>:
     f08:	1f 92       	push	r1
     f0a:	0f 92       	push	r0
     f0c:	0f b6       	in	r0, 0x3f	; 63
     f0e:	0f 92       	push	r0
     f10:	11 24       	eor	r1, r1
     f12:	8f 93       	push	r24
     f14:	9f 93       	push	r25
     f16:	af 93       	push	r26
     f18:	bf 93       	push	r27
     f1a:	ef 93       	push	r30
     f1c:	ff 93       	push	r31
     f1e:	ec e5       	ldi	r30, 0x5C	; 92
     f20:	f2 e0       	ldi	r31, 0x02	; 2
     f22:	80 81       	ld	r24, Z
     f24:	91 81       	ldd	r25, Z+1	; 0x01
     f26:	a2 81       	ldd	r26, Z+2	; 0x02
     f28:	b3 81       	ldd	r27, Z+3	; 0x03
     f2a:	01 96       	adiw	r24, 0x01	; 1
     f2c:	a1 1d       	adc	r26, r1
     f2e:	b1 1d       	adc	r27, r1
     f30:	80 83       	st	Z, r24
     f32:	91 83       	std	Z+1, r25	; 0x01
     f34:	a2 83       	std	Z+2, r26	; 0x02
     f36:	b3 83       	std	Z+3, r27	; 0x03
     f38:	ff 91       	pop	r31
     f3a:	ef 91       	pop	r30
     f3c:	bf 91       	pop	r27
     f3e:	af 91       	pop	r26
     f40:	9f 91       	pop	r25
     f42:	8f 91       	pop	r24
     f44:	0f 90       	pop	r0
     f46:	0f be       	out	0x3f, r0	; 63
     f48:	0f 90       	pop	r0
     f4a:	1f 90       	pop	r1
     f4c:	18 95       	reti

00000f4e <__vector_10>:
     f4e:	1f 92       	push	r1
     f50:	0f 92       	push	r0
     f52:	0f b6       	in	r0, 0x3f	; 63
     f54:	0f 92       	push	r0
     f56:	11 24       	eor	r1, r1
     f58:	2f 93       	push	r18
     f5a:	3f 93       	push	r19
     f5c:	8f 93       	push	r24
     f5e:	9f 93       	push	r25
     f60:	af 93       	push	r26
     f62:	bf 93       	push	r27
     f64:	80 91 65 02 	lds	r24, 0x0265
     f68:	88 23       	and	r24, r24
     f6a:	09 f4       	brne	.+2      	; 0xf6e <__vector_10+0x20>
     f6c:	3f c0       	rjmp	.+126    	; 0xfec <__vector_10+0x9e>
     f6e:	80 91 65 02 	lds	r24, 0x0265
     f72:	81 30       	cpi	r24, 0x01	; 1
     f74:	09 f4       	brne	.+2      	; 0xf78 <__vector_10+0x2a>
     f76:	45 c0       	rjmp	.+138    	; 0x1002 <__vector_10+0xb4>
     f78:	f8 94       	cli
     f7a:	10 92 65 02 	sts	0x0265, r1
     f7e:	20 91 86 00 	lds	r18, 0x0086
     f82:	30 91 87 00 	lds	r19, 0x0087
     f86:	80 91 5c 02 	lds	r24, 0x025C
     f8a:	90 91 5d 02 	lds	r25, 0x025D
     f8e:	a0 91 5e 02 	lds	r26, 0x025E
     f92:	b0 91 5f 02 	lds	r27, 0x025F
     f96:	dc 01       	movw	r26, r24
     f98:	99 27       	eor	r25, r25
     f9a:	88 27       	eor	r24, r24
     f9c:	82 0f       	add	r24, r18
     f9e:	93 1f       	adc	r25, r19
     fa0:	a1 1d       	adc	r26, r1
     fa2:	b1 1d       	adc	r27, r1
     fa4:	b6 95       	lsr	r27
     fa6:	a7 95       	ror	r26
     fa8:	97 95       	ror	r25
     faa:	87 95       	ror	r24
     fac:	80 93 54 02 	sts	0x0254, r24
     fb0:	90 93 55 02 	sts	0x0255, r25
     fb4:	a0 93 56 02 	sts	0x0256, r26
     fb8:	b0 93 57 02 	sts	0x0257, r27
     fbc:	80 91 81 00 	lds	r24, 0x0081
     fc0:	8f 7b       	andi	r24, 0xBF	; 191
     fc2:	80 93 81 00 	sts	0x0081, r24
     fc6:	80 91 6f 00 	lds	r24, 0x006F
     fca:	8f 7d       	andi	r24, 0xDF	; 223
     fcc:	80 93 6f 00 	sts	0x006F, r24
     fd0:	78 94       	sei
     fd2:	10 92 67 02 	sts	0x0267, r1
     fd6:	bf 91       	pop	r27
     fd8:	af 91       	pop	r26
     fda:	9f 91       	pop	r25
     fdc:	8f 91       	pop	r24
     fde:	3f 91       	pop	r19
     fe0:	2f 91       	pop	r18
     fe2:	0f 90       	pop	r0
     fe4:	0f be       	out	0x3f, r0	; 63
     fe6:	0f 90       	pop	r0
     fe8:	1f 90       	pop	r1
     fea:	18 95       	reti
     fec:	80 91 81 00 	lds	r24, 0x0081
     ff0:	80 64       	ori	r24, 0x40	; 64
     ff2:	80 93 81 00 	sts	0x0081, r24
     ff6:	80 91 65 02 	lds	r24, 0x0265
     ffa:	8f 5f       	subi	r24, 0xFF	; 255
     ffc:	80 93 65 02 	sts	0x0265, r24
    1000:	ea cf       	rjmp	.-44     	; 0xfd6 <__vector_10+0x88>
    1002:	f8 94       	cli
    1004:	10 92 85 00 	sts	0x0085, r1
    1008:	10 92 84 00 	sts	0x0084, r1
    100c:	10 92 5c 02 	sts	0x025C, r1
    1010:	10 92 5d 02 	sts	0x025D, r1
    1014:	10 92 5e 02 	sts	0x025E, r1
    1018:	10 92 5f 02 	sts	0x025F, r1
    101c:	78 94       	sei
    101e:	80 91 65 02 	lds	r24, 0x0265
    1022:	8f 5f       	subi	r24, 0xFF	; 255
    1024:	80 93 65 02 	sts	0x0265, r24
    1028:	d6 cf       	rjmp	.-84     	; 0xfd6 <__vector_10+0x88>

0000102a <__vector_9>:
    102a:	1f 92       	push	r1
    102c:	0f 92       	push	r0
    102e:	0f b6       	in	r0, 0x3f	; 63
    1030:	0f 92       	push	r0
    1032:	11 24       	eor	r1, r1
    1034:	8f 93       	push	r24
    1036:	9f 93       	push	r25
    1038:	af 93       	push	r26
    103a:	bf 93       	push	r27
    103c:	ef 93       	push	r30
    103e:	ff 93       	push	r31
    1040:	e0 e6       	ldi	r30, 0x60	; 96
    1042:	f2 e0       	ldi	r31, 0x02	; 2
    1044:	80 81       	ld	r24, Z
    1046:	91 81       	ldd	r25, Z+1	; 0x01
    1048:	a2 81       	ldd	r26, Z+2	; 0x02
    104a:	b3 81       	ldd	r27, Z+3	; 0x03
    104c:	01 96       	adiw	r24, 0x01	; 1
    104e:	a1 1d       	adc	r26, r1
    1050:	b1 1d       	adc	r27, r1
    1052:	80 83       	st	Z, r24
    1054:	91 83       	std	Z+1, r25	; 0x01
    1056:	a2 83       	std	Z+2, r26	; 0x02
    1058:	b3 83       	std	Z+3, r27	; 0x03
    105a:	ff 91       	pop	r31
    105c:	ef 91       	pop	r30
    105e:	bf 91       	pop	r27
    1060:	af 91       	pop	r26
    1062:	9f 91       	pop	r25
    1064:	8f 91       	pop	r24
    1066:	0f 90       	pop	r0
    1068:	0f be       	out	0x3f, r0	; 63
    106a:	0f 90       	pop	r0
    106c:	1f 90       	pop	r1
    106e:	18 95       	reti

00001070 <app_uart_isr>:
    1070:	90 91 4c 02 	lds	r25, 0x024C
    1074:	99 23       	and	r25, r25
    1076:	91 f0       	breq	.+36     	; 0x109c <app_uart_isr+0x2c>
    1078:	80 91 4e 02 	lds	r24, 0x024E
    107c:	8f 3f       	cpi	r24, 0xFF	; 255
    107e:	29 f0       	breq	.+10     	; 0x108a <app_uart_isr+0x1a>
    1080:	80 91 4e 02 	lds	r24, 0x024E
    1084:	8f 5f       	subi	r24, 0xFF	; 255
    1086:	80 93 4e 02 	sts	0x024E, r24
    108a:	85 e7       	ldi	r24, 0x75	; 117
    108c:	91 e0       	ldi	r25, 0x01	; 1
    108e:	9f 93       	push	r25
    1090:	8f 93       	push	r24
    1092:	0e 94 8e 13 	call	0x271c	; 0x271c <printf>
    1096:	0f 90       	pop	r0
    1098:	0f 90       	pop	r0
    109a:	08 95       	ret
    109c:	90 91 4b 02 	lds	r25, 0x024B
    10a0:	91 11       	cpse	r25, r1
    10a2:	03 c0       	rjmp	.+6      	; 0x10aa <app_uart_isr+0x3a>
    10a4:	82 30       	cpi	r24, 0x02	; 2
    10a6:	21 f1       	breq	.+72     	; 0x10f0 <app_uart_isr+0x80>
    10a8:	08 95       	ret
    10aa:	90 91 4b 02 	lds	r25, 0x024B
    10ae:	91 11       	cpse	r25, r1
    10b0:	23 c0       	rjmp	.+70     	; 0x10f8 <app_uart_isr+0x88>
    10b2:	83 30       	cpi	r24, 0x03	; 3
    10b4:	41 f1       	breq	.+80     	; 0x1106 <app_uart_isr+0x96>
    10b6:	80 91 4b 02 	lds	r24, 0x024B
    10ba:	80 34       	cpi	r24, 0x40	; 64
    10bc:	98 f0       	brcs	.+38     	; 0x10e4 <app_uart_isr+0x74>
    10be:	10 92 4b 02 	sts	0x024B, r1
    10c2:	80 91 4d 02 	lds	r24, 0x024D
    10c6:	8f 3f       	cpi	r24, 0xFF	; 255
    10c8:	29 f0       	breq	.+10     	; 0x10d4 <app_uart_isr+0x64>
    10ca:	80 91 4d 02 	lds	r24, 0x024D
    10ce:	8f 5f       	subi	r24, 0xFF	; 255
    10d0:	80 93 4d 02 	sts	0x024D, r24
    10d4:	83 ea       	ldi	r24, 0xA3	; 163
    10d6:	91 e0       	ldi	r25, 0x01	; 1
    10d8:	9f 93       	push	r25
    10da:	8f 93       	push	r24
    10dc:	0e 94 8e 13 	call	0x271c	; 0x271c <printf>
    10e0:	0f 90       	pop	r0
    10e2:	0f 90       	pop	r0
    10e4:	80 91 4b 02 	lds	r24, 0x024B
    10e8:	8f 5f       	subi	r24, 0xFF	; 255
    10ea:	80 93 4b 02 	sts	0x024B, r24
    10ee:	08 95       	ret
    10f0:	90 91 4b 02 	lds	r25, 0x024B
    10f4:	99 23       	and	r25, r25
    10f6:	f9 f2       	breq	.-66     	; 0x10b6 <app_uart_isr+0x46>
    10f8:	e0 91 4b 02 	lds	r30, 0x024B
    10fc:	f0 e0       	ldi	r31, 0x00	; 0
    10fe:	e6 53       	subi	r30, 0x36	; 54
    1100:	fe 4f       	sbci	r31, 0xFE	; 254
    1102:	80 83       	st	Z, r24
    1104:	d6 cf       	rjmp	.-84     	; 0x10b2 <app_uart_isr+0x42>
    1106:	81 e0       	ldi	r24, 0x01	; 1
    1108:	80 93 4c 02 	sts	0x024C, r24
    110c:	0e 94 71 10 	call	0x20e2	; 0x20e2 <sys_setEvent>
    1110:	e9 cf       	rjmp	.-46     	; 0x10e4 <app_uart_isr+0x74>

00001112 <bmp180_init>:
    1112:	84 e9       	ldi	r24, 0x94	; 148
    1114:	80 93 bc 00 	sts	0x00BC, r24
    1118:	08 95       	ret

0000111a <i2c_start>:
    111a:	10 92 bc 00 	sts	0x00BC, r1
    111e:	94 ea       	ldi	r25, 0xA4	; 164
    1120:	90 93 bc 00 	sts	0x00BC, r25
    1124:	90 91 bc 00 	lds	r25, 0x00BC
    1128:	97 ff       	sbrs	r25, 7
    112a:	fc cf       	rjmp	.-8      	; 0x1124 <i2c_start+0xa>
    112c:	90 91 b9 00 	lds	r25, 0x00B9
    1130:	98 7f       	andi	r25, 0xF8	; 248
    1132:	98 30       	cpi	r25, 0x08	; 8
    1134:	11 f0       	breq	.+4      	; 0x113a <i2c_start+0x20>
    1136:	81 e0       	ldi	r24, 0x01	; 1
    1138:	08 95       	ret
    113a:	80 93 bb 00 	sts	0x00BB, r24
    113e:	84 e8       	ldi	r24, 0x84	; 132
    1140:	80 93 bc 00 	sts	0x00BC, r24
    1144:	80 91 bc 00 	lds	r24, 0x00BC
    1148:	87 ff       	sbrs	r24, 7
    114a:	fc cf       	rjmp	.-8      	; 0x1144 <i2c_start+0x2a>
    114c:	80 91 b9 00 	lds	r24, 0x00B9
    1150:	88 7f       	andi	r24, 0xF8	; 248
    1152:	88 31       	cpi	r24, 0x18	; 24
    1154:	11 f0       	breq	.+4      	; 0x115a <i2c_start+0x40>
    1156:	80 34       	cpi	r24, 0x40	; 64
    1158:	71 f7       	brne	.-36     	; 0x1136 <i2c_start+0x1c>
    115a:	80 e0       	ldi	r24, 0x00	; 0
    115c:	08 95       	ret

0000115e <i2c_write>:
    115e:	80 93 bb 00 	sts	0x00BB, r24
    1162:	84 e8       	ldi	r24, 0x84	; 132
    1164:	80 93 bc 00 	sts	0x00BC, r24
    1168:	80 91 bc 00 	lds	r24, 0x00BC
    116c:	87 ff       	sbrs	r24, 7
    116e:	fc cf       	rjmp	.-8      	; 0x1168 <i2c_write+0xa>
    1170:	90 91 b9 00 	lds	r25, 0x00B9
    1174:	98 7f       	andi	r25, 0xF8	; 248
    1176:	81 e0       	ldi	r24, 0x01	; 1
    1178:	98 32       	cpi	r25, 0x28	; 40
    117a:	09 f0       	breq	.+2      	; 0x117e <i2c_write+0x20>
    117c:	08 95       	ret
    117e:	80 e0       	ldi	r24, 0x00	; 0
    1180:	08 95       	ret

00001182 <i2c_read_ack>:
    1182:	84 ec       	ldi	r24, 0xC4	; 196
    1184:	80 93 bc 00 	sts	0x00BC, r24
    1188:	80 91 bc 00 	lds	r24, 0x00BC
    118c:	87 ff       	sbrs	r24, 7
    118e:	fc cf       	rjmp	.-8      	; 0x1188 <i2c_read_ack+0x6>
    1190:	80 91 bb 00 	lds	r24, 0x00BB
    1194:	08 95       	ret

00001196 <i2c_stop>:
    1196:	84 e9       	ldi	r24, 0x94	; 148
    1198:	80 93 bc 00 	sts	0x00BC, r24
    119c:	08 95       	ret

0000119e <getCalibrationValues>:
    119e:	2f 92       	push	r2
    11a0:	3f 92       	push	r3
    11a2:	4f 92       	push	r4
    11a4:	5f 92       	push	r5
    11a6:	6f 92       	push	r6
    11a8:	7f 92       	push	r7
    11aa:	8f 92       	push	r8
    11ac:	9f 92       	push	r9
    11ae:	af 92       	push	r10
    11b0:	bf 92       	push	r11
    11b2:	cf 92       	push	r12
    11b4:	df 92       	push	r13
    11b6:	ef 92       	push	r14
    11b8:	ff 92       	push	r15
    11ba:	0f 93       	push	r16
    11bc:	1f 93       	push	r17
    11be:	cf 93       	push	r28
    11c0:	df 93       	push	r29
    11c2:	cd b7       	in	r28, 0x3d	; 61
    11c4:	de b7       	in	r29, 0x3e	; 62
    11c6:	2e 97       	sbiw	r28, 0x0e	; 14
    11c8:	0f b6       	in	r0, 0x3f	; 63
    11ca:	f8 94       	cli
    11cc:	de bf       	out	0x3e, r29	; 62
    11ce:	0f be       	out	0x3f, r0	; 63
    11d0:	cd bf       	out	0x3d, r28	; 61
    11d2:	3c 01       	movw	r6, r24
    11d4:	8b a0       	ldd	r8, Y+35	; 0x23
    11d6:	9c a0       	ldd	r9, Y+36	; 0x24
    11d8:	ad a0       	ldd	r10, Y+37	; 0x25
    11da:	be a0       	ldd	r11, Y+38	; 0x26
    11dc:	cf a0       	ldd	r12, Y+39	; 0x27
    11de:	d8 a4       	ldd	r13, Y+40	; 0x28
    11e0:	e9 a4       	ldd	r14, Y+41	; 0x29
    11e2:	fa a4       	ldd	r15, Y+42	; 0x2a
    11e4:	4b a5       	ldd	r20, Y+43	; 0x2b
    11e6:	5c a5       	ldd	r21, Y+44	; 0x2c
    11e8:	5e 87       	std	Y+14, r21	; 0x0e
    11ea:	4d 87       	std	Y+13, r20	; 0x0d
    11ec:	4d a5       	ldd	r20, Y+45	; 0x2d
    11ee:	5e a5       	ldd	r21, Y+46	; 0x2e
    11f0:	5c 87       	std	Y+12, r21	; 0x0c
    11f2:	4b 87       	std	Y+11, r20	; 0x0b
    11f4:	4f a5       	ldd	r20, Y+47	; 0x2f
    11f6:	58 a9       	ldd	r21, Y+48	; 0x30
    11f8:	5a 87       	std	Y+10, r21	; 0x0a
    11fa:	49 87       	std	Y+9, r20	; 0x09
    11fc:	49 a9       	ldd	r20, Y+49	; 0x31
    11fe:	5a a9       	ldd	r21, Y+50	; 0x32
    1200:	58 87       	std	Y+8, r21	; 0x08
    1202:	4f 83       	std	Y+7, r20	; 0x07
    1204:	4b a9       	ldd	r20, Y+51	; 0x33
    1206:	5c a9       	ldd	r21, Y+52	; 0x34
    1208:	5e 83       	std	Y+6, r21	; 0x06
    120a:	4d 83       	std	Y+5, r20	; 0x05
    120c:	4d a9       	ldd	r20, Y+53	; 0x35
    120e:	5e a9       	ldd	r21, Y+54	; 0x36
    1210:	5a 83       	std	Y+2, r21	; 0x02
    1212:	49 83       	std	Y+1, r20	; 0x01
    1214:	4f a9       	ldd	r20, Y+55	; 0x37
    1216:	58 ad       	ldd	r21, Y+56	; 0x38
    1218:	5c 83       	std	Y+4, r21	; 0x04
    121a:	4b 83       	std	Y+3, r20	; 0x03
    121c:	01 e0       	ldi	r16, 0x01	; 1
    121e:	84 e8       	ldi	r24, 0x84	; 132
    1220:	38 2e       	mov	r3, r24
    1222:	94 e9       	ldi	r25, 0x94	; 148
    1224:	59 2e       	mov	r5, r25
    1226:	24 ec       	ldi	r18, 0xC4	; 196
    1228:	42 2e       	mov	r4, r18
    122a:	1f ef       	ldi	r17, 0xFF	; 255
    122c:	10 0f       	add	r17, r16
    122e:	84 e5       	ldi	r24, 0x54	; 84
    1230:	80 0f       	add	r24, r16
    1232:	28 2e       	mov	r2, r24
    1234:	22 0c       	add	r2, r2
    1236:	8e ee       	ldi	r24, 0xEE	; 238
    1238:	0e 94 8d 08 	call	0x111a	; 0x111a <i2c_start>
    123c:	20 92 bb 00 	sts	0x00BB, r2
    1240:	30 92 bc 00 	sts	0x00BC, r3
    1244:	80 91 bc 00 	lds	r24, 0x00BC
    1248:	87 ff       	sbrs	r24, 7
    124a:	fc cf       	rjmp	.-8      	; 0x1244 <getCalibrationValues+0xa6>
    124c:	80 91 b9 00 	lds	r24, 0x00B9
    1250:	50 92 bc 00 	sts	0x00BC, r5
    1254:	8f ee       	ldi	r24, 0xEF	; 239
    1256:	0e 94 8d 08 	call	0x111a	; 0x111a <i2c_start>
    125a:	81 2f       	mov	r24, r17
    125c:	90 e0       	ldi	r25, 0x00	; 0
    125e:	fc 01       	movw	r30, r24
    1260:	31 97       	sbiw	r30, 0x01	; 1
    1262:	ea 30       	cpi	r30, 0x0A	; 10
    1264:	f1 05       	cpc	r31, r1
    1266:	08 f4       	brcc	.+2      	; 0x126a <getCalibrationValues+0xcc>
    1268:	7c c0       	rjmp	.+248    	; 0x1362 <getCalibrationValues+0x1c4>
    126a:	40 92 bc 00 	sts	0x00BC, r4
    126e:	80 91 bc 00 	lds	r24, 0x00BC
    1272:	87 ff       	sbrs	r24, 7
    1274:	fc cf       	rjmp	.-8      	; 0x126e <getCalibrationValues+0xd0>
    1276:	80 90 bb 00 	lds	r8, 0x00BB
    127a:	91 2c       	mov	r9, r1
    127c:	98 2c       	mov	r9, r8
    127e:	88 24       	eor	r8, r8
    1280:	40 92 bc 00 	sts	0x00BC, r4
    1284:	80 91 bc 00 	lds	r24, 0x00BC
    1288:	87 ff       	sbrs	r24, 7
    128a:	fc cf       	rjmp	.-8      	; 0x1284 <getCalibrationValues+0xe6>
    128c:	80 91 bb 00 	lds	r24, 0x00BB
    1290:	88 2a       	or	r8, r24
    1292:	50 92 bc 00 	sts	0x00BC, r5
    1296:	0b 30       	cpi	r16, 0x0B	; 11
    1298:	f1 f0       	breq	.+60     	; 0x12d6 <getCalibrationValues+0x138>
    129a:	0f 5f       	subi	r16, 0xFF	; 255
    129c:	c6 cf       	rjmp	.-116    	; 0x122a <getCalibrationValues+0x8c>
    129e:	84 ec       	ldi	r24, 0xC4	; 196
    12a0:	80 93 bc 00 	sts	0x00BC, r24
    12a4:	80 91 bc 00 	lds	r24, 0x00BC
    12a8:	87 ff       	sbrs	r24, 7
    12aa:	fc cf       	rjmp	.-8      	; 0x12a4 <getCalibrationValues+0x106>
    12ac:	20 91 bb 00 	lds	r18, 0x00BB
    12b0:	30 e0       	ldi	r19, 0x00	; 0
    12b2:	32 2f       	mov	r19, r18
    12b4:	22 27       	eor	r18, r18
    12b6:	84 ec       	ldi	r24, 0xC4	; 196
    12b8:	80 93 bc 00 	sts	0x00BC, r24
    12bc:	80 91 bc 00 	lds	r24, 0x00BC
    12c0:	87 ff       	sbrs	r24, 7
    12c2:	fc cf       	rjmp	.-8      	; 0x12bc <getCalibrationValues+0x11e>
    12c4:	80 91 bb 00 	lds	r24, 0x00BB
    12c8:	a9 01       	movw	r20, r18
    12ca:	48 2b       	or	r20, r24
    12cc:	5c 83       	std	Y+4, r21	; 0x04
    12ce:	4b 83       	std	Y+3, r20	; 0x03
    12d0:	84 e9       	ldi	r24, 0x94	; 148
    12d2:	80 93 bc 00 	sts	0x00BC, r24
    12d6:	9c a2       	std	Y+36, r9	; 0x24
    12d8:	8b a2       	std	Y+35, r8	; 0x23
    12da:	be a2       	std	Y+38, r11	; 0x26
    12dc:	ad a2       	std	Y+37, r10	; 0x25
    12de:	d8 a6       	std	Y+40, r13	; 0x28
    12e0:	cf a2       	std	Y+39, r12	; 0x27
    12e2:	fa a6       	std	Y+42, r15	; 0x2a
    12e4:	e9 a6       	std	Y+41, r14	; 0x29
    12e6:	4d 85       	ldd	r20, Y+13	; 0x0d
    12e8:	5e 85       	ldd	r21, Y+14	; 0x0e
    12ea:	5c a7       	std	Y+44, r21	; 0x2c
    12ec:	4b a7       	std	Y+43, r20	; 0x2b
    12ee:	4b 85       	ldd	r20, Y+11	; 0x0b
    12f0:	5c 85       	ldd	r21, Y+12	; 0x0c
    12f2:	5e a7       	std	Y+46, r21	; 0x2e
    12f4:	4d a7       	std	Y+45, r20	; 0x2d
    12f6:	49 85       	ldd	r20, Y+9	; 0x09
    12f8:	5a 85       	ldd	r21, Y+10	; 0x0a
    12fa:	58 ab       	std	Y+48, r21	; 0x30
    12fc:	4f a7       	std	Y+47, r20	; 0x2f
    12fe:	4f 81       	ldd	r20, Y+7	; 0x07
    1300:	58 85       	ldd	r21, Y+8	; 0x08
    1302:	5a ab       	std	Y+50, r21	; 0x32
    1304:	49 ab       	std	Y+49, r20	; 0x31
    1306:	4d 81       	ldd	r20, Y+5	; 0x05
    1308:	5e 81       	ldd	r21, Y+6	; 0x06
    130a:	5c ab       	std	Y+52, r21	; 0x34
    130c:	4b ab       	std	Y+51, r20	; 0x33
    130e:	49 81       	ldd	r20, Y+1	; 0x01
    1310:	5a 81       	ldd	r21, Y+2	; 0x02
    1312:	5e ab       	std	Y+54, r21	; 0x36
    1314:	4d ab       	std	Y+53, r20	; 0x35
    1316:	4b 81       	ldd	r20, Y+3	; 0x03
    1318:	5c 81       	ldd	r21, Y+4	; 0x04
    131a:	58 af       	std	Y+56, r21	; 0x38
    131c:	4f ab       	std	Y+55, r20	; 0x37
    131e:	86 e4       	ldi	r24, 0x46	; 70
    1320:	fe 01       	movw	r30, r28
    1322:	b3 96       	adiw	r30, 0x23	; 35
    1324:	d3 01       	movw	r26, r6
    1326:	01 90       	ld	r0, Z+
    1328:	0d 92       	st	X+, r0
    132a:	8a 95       	dec	r24
    132c:	e1 f7       	brne	.-8      	; 0x1326 <getCalibrationValues+0x188>
    132e:	c3 01       	movw	r24, r6
    1330:	2e 96       	adiw	r28, 0x0e	; 14
    1332:	0f b6       	in	r0, 0x3f	; 63
    1334:	f8 94       	cli
    1336:	de bf       	out	0x3e, r29	; 62
    1338:	0f be       	out	0x3f, r0	; 63
    133a:	cd bf       	out	0x3d, r28	; 61
    133c:	df 91       	pop	r29
    133e:	cf 91       	pop	r28
    1340:	1f 91       	pop	r17
    1342:	0f 91       	pop	r16
    1344:	ff 90       	pop	r15
    1346:	ef 90       	pop	r14
    1348:	df 90       	pop	r13
    134a:	cf 90       	pop	r12
    134c:	bf 90       	pop	r11
    134e:	af 90       	pop	r10
    1350:	9f 90       	pop	r9
    1352:	8f 90       	pop	r8
    1354:	7f 90       	pop	r7
    1356:	6f 90       	pop	r6
    1358:	5f 90       	pop	r5
    135a:	4f 90       	pop	r4
    135c:	3f 90       	pop	r3
    135e:	2f 90       	pop	r2
    1360:	08 95       	ret
    1362:	ec 5c       	subi	r30, 0xCC	; 204
    1364:	ff 4f       	sbci	r31, 0xFF	; 255
    1366:	0c 94 4f 11 	jmp	0x229e	; 0x229e <__tablejump2__>
    136a:	40 92 bc 00 	sts	0x00BC, r4
    136e:	80 91 bc 00 	lds	r24, 0x00BC
    1372:	87 ff       	sbrs	r24, 7
    1374:	fc cf       	rjmp	.-8      	; 0x136e <getCalibrationValues+0x1d0>
    1376:	20 91 bb 00 	lds	r18, 0x00BB
    137a:	30 e0       	ldi	r19, 0x00	; 0
    137c:	32 2f       	mov	r19, r18
    137e:	22 27       	eor	r18, r18
    1380:	40 92 bc 00 	sts	0x00BC, r4
    1384:	80 91 bc 00 	lds	r24, 0x00BC
    1388:	87 ff       	sbrs	r24, 7
    138a:	fc cf       	rjmp	.-8      	; 0x1384 <getCalibrationValues+0x1e6>
    138c:	80 91 bb 00 	lds	r24, 0x00BB
    1390:	a9 01       	movw	r20, r18
    1392:	48 2b       	or	r20, r24
    1394:	5e 83       	std	Y+6, r21	; 0x06
    1396:	4d 83       	std	Y+5, r20	; 0x05
    1398:	50 92 bc 00 	sts	0x00BC, r5
    139c:	0f 5f       	subi	r16, 0xFF	; 255
    139e:	45 cf       	rjmp	.-374    	; 0x122a <getCalibrationValues+0x8c>
    13a0:	40 92 bc 00 	sts	0x00BC, r4
    13a4:	80 91 bc 00 	lds	r24, 0x00BC
    13a8:	87 ff       	sbrs	r24, 7
    13aa:	fc cf       	rjmp	.-8      	; 0x13a4 <getCalibrationValues+0x206>
    13ac:	20 91 bb 00 	lds	r18, 0x00BB
    13b0:	30 e0       	ldi	r19, 0x00	; 0
    13b2:	32 2f       	mov	r19, r18
    13b4:	22 27       	eor	r18, r18
    13b6:	40 92 bc 00 	sts	0x00BC, r4
    13ba:	80 91 bc 00 	lds	r24, 0x00BC
    13be:	87 ff       	sbrs	r24, 7
    13c0:	fc cf       	rjmp	.-8      	; 0x13ba <getCalibrationValues+0x21c>
    13c2:	80 91 bb 00 	lds	r24, 0x00BB
    13c6:	a9 01       	movw	r20, r18
    13c8:	48 2b       	or	r20, r24
    13ca:	58 87       	std	Y+8, r21	; 0x08
    13cc:	4f 83       	std	Y+7, r20	; 0x07
    13ce:	e4 cf       	rjmp	.-56     	; 0x1398 <getCalibrationValues+0x1fa>
    13d0:	40 92 bc 00 	sts	0x00BC, r4
    13d4:	80 91 bc 00 	lds	r24, 0x00BC
    13d8:	87 ff       	sbrs	r24, 7
    13da:	fc cf       	rjmp	.-8      	; 0x13d4 <getCalibrationValues+0x236>
    13dc:	20 91 bb 00 	lds	r18, 0x00BB
    13e0:	30 e0       	ldi	r19, 0x00	; 0
    13e2:	32 2f       	mov	r19, r18
    13e4:	22 27       	eor	r18, r18
    13e6:	40 92 bc 00 	sts	0x00BC, r4
    13ea:	80 91 bc 00 	lds	r24, 0x00BC
    13ee:	87 ff       	sbrs	r24, 7
    13f0:	fc cf       	rjmp	.-8      	; 0x13ea <getCalibrationValues+0x24c>
    13f2:	80 91 bb 00 	lds	r24, 0x00BB
    13f6:	a9 01       	movw	r20, r18
    13f8:	48 2b       	or	r20, r24
    13fa:	5a 87       	std	Y+10, r21	; 0x0a
    13fc:	49 87       	std	Y+9, r20	; 0x09
    13fe:	cc cf       	rjmp	.-104    	; 0x1398 <getCalibrationValues+0x1fa>
    1400:	40 92 bc 00 	sts	0x00BC, r4
    1404:	80 91 bc 00 	lds	r24, 0x00BC
    1408:	87 ff       	sbrs	r24, 7
    140a:	fc cf       	rjmp	.-8      	; 0x1404 <getCalibrationValues+0x266>
    140c:	20 91 bb 00 	lds	r18, 0x00BB
    1410:	30 e0       	ldi	r19, 0x00	; 0
    1412:	32 2f       	mov	r19, r18
    1414:	22 27       	eor	r18, r18
    1416:	40 92 bc 00 	sts	0x00BC, r4
    141a:	80 91 bc 00 	lds	r24, 0x00BC
    141e:	87 ff       	sbrs	r24, 7
    1420:	fc cf       	rjmp	.-8      	; 0x141a <getCalibrationValues+0x27c>
    1422:	80 91 bb 00 	lds	r24, 0x00BB
    1426:	a9 01       	movw	r20, r18
    1428:	48 2b       	or	r20, r24
    142a:	5c 87       	std	Y+12, r21	; 0x0c
    142c:	4b 87       	std	Y+11, r20	; 0x0b
    142e:	b4 cf       	rjmp	.-152    	; 0x1398 <getCalibrationValues+0x1fa>
    1430:	40 92 bc 00 	sts	0x00BC, r4
    1434:	80 91 bc 00 	lds	r24, 0x00BC
    1438:	87 ff       	sbrs	r24, 7
    143a:	fc cf       	rjmp	.-8      	; 0x1434 <getCalibrationValues+0x296>
    143c:	20 91 bb 00 	lds	r18, 0x00BB
    1440:	30 e0       	ldi	r19, 0x00	; 0
    1442:	32 2f       	mov	r19, r18
    1444:	22 27       	eor	r18, r18
    1446:	40 92 bc 00 	sts	0x00BC, r4
    144a:	80 91 bc 00 	lds	r24, 0x00BC
    144e:	87 ff       	sbrs	r24, 7
    1450:	fc cf       	rjmp	.-8      	; 0x144a <getCalibrationValues+0x2ac>
    1452:	80 91 bb 00 	lds	r24, 0x00BB
    1456:	a9 01       	movw	r20, r18
    1458:	48 2b       	or	r20, r24
    145a:	5e 87       	std	Y+14, r21	; 0x0e
    145c:	4d 87       	std	Y+13, r20	; 0x0d
    145e:	9c cf       	rjmp	.-200    	; 0x1398 <getCalibrationValues+0x1fa>
    1460:	40 92 bc 00 	sts	0x00BC, r4
    1464:	80 91 bc 00 	lds	r24, 0x00BC
    1468:	87 ff       	sbrs	r24, 7
    146a:	fc cf       	rjmp	.-8      	; 0x1464 <getCalibrationValues+0x2c6>
    146c:	e0 90 bb 00 	lds	r14, 0x00BB
    1470:	f1 2c       	mov	r15, r1
    1472:	fe 2c       	mov	r15, r14
    1474:	ee 24       	eor	r14, r14
    1476:	40 92 bc 00 	sts	0x00BC, r4
    147a:	80 91 bc 00 	lds	r24, 0x00BC
    147e:	87 ff       	sbrs	r24, 7
    1480:	fc cf       	rjmp	.-8      	; 0x147a <getCalibrationValues+0x2dc>
    1482:	80 91 bb 00 	lds	r24, 0x00BB
    1486:	e8 2a       	or	r14, r24
    1488:	87 cf       	rjmp	.-242    	; 0x1398 <getCalibrationValues+0x1fa>
    148a:	40 92 bc 00 	sts	0x00BC, r4
    148e:	80 91 bc 00 	lds	r24, 0x00BC
    1492:	87 ff       	sbrs	r24, 7
    1494:	fc cf       	rjmp	.-8      	; 0x148e <getCalibrationValues+0x2f0>
    1496:	c0 90 bb 00 	lds	r12, 0x00BB
    149a:	d1 2c       	mov	r13, r1
    149c:	dc 2c       	mov	r13, r12
    149e:	cc 24       	eor	r12, r12
    14a0:	40 92 bc 00 	sts	0x00BC, r4
    14a4:	80 91 bc 00 	lds	r24, 0x00BC
    14a8:	87 ff       	sbrs	r24, 7
    14aa:	fc cf       	rjmp	.-8      	; 0x14a4 <getCalibrationValues+0x306>
    14ac:	80 91 bb 00 	lds	r24, 0x00BB
    14b0:	c8 2a       	or	r12, r24
    14b2:	72 cf       	rjmp	.-284    	; 0x1398 <getCalibrationValues+0x1fa>
    14b4:	40 92 bc 00 	sts	0x00BC, r4
    14b8:	80 91 bc 00 	lds	r24, 0x00BC
    14bc:	87 ff       	sbrs	r24, 7
    14be:	fc cf       	rjmp	.-8      	; 0x14b8 <getCalibrationValues+0x31a>
    14c0:	a0 90 bb 00 	lds	r10, 0x00BB
    14c4:	b1 2c       	mov	r11, r1
    14c6:	ba 2c       	mov	r11, r10
    14c8:	aa 24       	eor	r10, r10
    14ca:	40 92 bc 00 	sts	0x00BC, r4
    14ce:	80 91 bc 00 	lds	r24, 0x00BC
    14d2:	87 ff       	sbrs	r24, 7
    14d4:	fc cf       	rjmp	.-8      	; 0x14ce <getCalibrationValues+0x330>
    14d6:	80 91 bb 00 	lds	r24, 0x00BB
    14da:	a8 2a       	or	r10, r24
    14dc:	5d cf       	rjmp	.-326    	; 0x1398 <getCalibrationValues+0x1fa>
    14de:	40 92 bc 00 	sts	0x00BC, r4
    14e2:	80 91 bc 00 	lds	r24, 0x00BC
    14e6:	87 ff       	sbrs	r24, 7
    14e8:	fc cf       	rjmp	.-8      	; 0x14e2 <getCalibrationValues+0x344>
    14ea:	20 91 bb 00 	lds	r18, 0x00BB
    14ee:	30 e0       	ldi	r19, 0x00	; 0
    14f0:	32 2f       	mov	r19, r18
    14f2:	22 27       	eor	r18, r18
    14f4:	40 92 bc 00 	sts	0x00BC, r4
    14f8:	80 91 bc 00 	lds	r24, 0x00BC
    14fc:	87 ff       	sbrs	r24, 7
    14fe:	fc cf       	rjmp	.-8      	; 0x14f8 <getCalibrationValues+0x35a>
    1500:	80 91 bb 00 	lds	r24, 0x00BB
    1504:	a9 01       	movw	r20, r18
    1506:	48 2b       	or	r20, r24
    1508:	5a 83       	std	Y+2, r21	; 0x02
    150a:	49 83       	std	Y+1, r20	; 0x01
    150c:	45 cf       	rjmp	.-374    	; 0x1398 <getCalibrationValues+0x1fa>

0000150e <getTemp>:
    150e:	4f 92       	push	r4
    1510:	5f 92       	push	r5
    1512:	6f 92       	push	r6
    1514:	7f 92       	push	r7
    1516:	8f 92       	push	r8
    1518:	9f 92       	push	r9
    151a:	af 92       	push	r10
    151c:	bf 92       	push	r11
    151e:	cf 92       	push	r12
    1520:	df 92       	push	r13
    1522:	ef 92       	push	r14
    1524:	ff 92       	push	r15
    1526:	0f 93       	push	r16
    1528:	1f 93       	push	r17
    152a:	cf 93       	push	r28
    152c:	df 93       	push	r29
    152e:	cd b7       	in	r28, 0x3d	; 61
    1530:	de b7       	in	r29, 0x3e	; 62
    1532:	8c 01       	movw	r16, r24
    1534:	8e ee       	ldi	r24, 0xEE	; 238
    1536:	0e 94 8d 08 	call	0x111a	; 0x111a <i2c_start>
    153a:	84 ef       	ldi	r24, 0xF4	; 244
    153c:	80 93 bb 00 	sts	0x00BB, r24
    1540:	84 e8       	ldi	r24, 0x84	; 132
    1542:	80 93 bc 00 	sts	0x00BC, r24
    1546:	90 91 bc 00 	lds	r25, 0x00BC
    154a:	97 ff       	sbrs	r25, 7
    154c:	fc cf       	rjmp	.-8      	; 0x1546 <getTemp+0x38>
    154e:	80 91 b9 00 	lds	r24, 0x00B9
    1552:	8e e2       	ldi	r24, 0x2E	; 46
    1554:	80 93 bb 00 	sts	0x00BB, r24
    1558:	84 e8       	ldi	r24, 0x84	; 132
    155a:	80 93 bc 00 	sts	0x00BC, r24
    155e:	90 91 bc 00 	lds	r25, 0x00BC
    1562:	97 ff       	sbrs	r25, 7
    1564:	fc cf       	rjmp	.-8      	; 0x155e <getTemp+0x50>
    1566:	80 91 b9 00 	lds	r24, 0x00B9
    156a:	84 e9       	ldi	r24, 0x94	; 148
    156c:	80 93 bc 00 	sts	0x00BC, r24
    1570:	8f e4       	ldi	r24, 0x4F	; 79
    1572:	96 e4       	ldi	r25, 0x46	; 70
    1574:	01 97       	sbiw	r24, 0x01	; 1
    1576:	f1 f7       	brne	.-4      	; 0x1574 <getTemp+0x66>
    1578:	00 c0       	rjmp	.+0      	; 0x157a <getTemp+0x6c>
    157a:	00 00       	nop
    157c:	8e ee       	ldi	r24, 0xEE	; 238
    157e:	0e 94 8d 08 	call	0x111a	; 0x111a <i2c_start>
    1582:	86 ef       	ldi	r24, 0xF6	; 246
    1584:	80 93 bb 00 	sts	0x00BB, r24
    1588:	84 e8       	ldi	r24, 0x84	; 132
    158a:	80 93 bc 00 	sts	0x00BC, r24
    158e:	90 91 bc 00 	lds	r25, 0x00BC
    1592:	97 ff       	sbrs	r25, 7
    1594:	fc cf       	rjmp	.-8      	; 0x158e <getTemp+0x80>
    1596:	80 91 b9 00 	lds	r24, 0x00B9
    159a:	84 e9       	ldi	r24, 0x94	; 148
    159c:	80 93 bc 00 	sts	0x00BC, r24
    15a0:	8f ee       	ldi	r24, 0xEF	; 239
    15a2:	0e 94 8d 08 	call	0x111a	; 0x111a <i2c_start>
    15a6:	84 ec       	ldi	r24, 0xC4	; 196
    15a8:	80 93 bc 00 	sts	0x00BC, r24
    15ac:	90 91 bc 00 	lds	r25, 0x00BC
    15b0:	97 ff       	sbrs	r25, 7
    15b2:	fc cf       	rjmp	.-8      	; 0x15ac <getTemp+0x9e>
    15b4:	c0 90 bb 00 	lds	r12, 0x00BB
    15b8:	d1 2c       	mov	r13, r1
    15ba:	dc 2c       	mov	r13, r12
    15bc:	cc 24       	eor	r12, r12
    15be:	e1 2c       	mov	r14, r1
    15c0:	f1 2c       	mov	r15, r1
    15c2:	84 ec       	ldi	r24, 0xC4	; 196
    15c4:	80 93 bc 00 	sts	0x00BC, r24
    15c8:	90 91 bc 00 	lds	r25, 0x00BC
    15cc:	97 ff       	sbrs	r25, 7
    15ce:	fc cf       	rjmp	.-8      	; 0x15c8 <getTemp+0xba>
    15d0:	80 91 bb 00 	lds	r24, 0x00BB
    15d4:	c8 2a       	or	r12, r24
    15d6:	84 e9       	ldi	r24, 0x94	; 148
    15d8:	80 93 bc 00 	sts	0x00BC, r24
    15dc:	8d 8d       	ldd	r24, Y+29	; 0x1d
    15de:	9e 8d       	ldd	r25, Y+30	; 0x1e
    15e0:	a7 01       	movw	r20, r14
    15e2:	96 01       	movw	r18, r12
    15e4:	28 1b       	sub	r18, r24
    15e6:	39 0b       	sbc	r19, r25
    15e8:	41 09       	sbc	r20, r1
    15ea:	51 09       	sbc	r21, r1
    15ec:	ab 8d       	ldd	r26, Y+27	; 0x1b
    15ee:	bc 8d       	ldd	r27, Y+28	; 0x1c
    15f0:	0e 94 64 11 	call	0x22c8	; 0x22c8 <__muluhisi3>
    15f4:	0e 94 8e 12 	call	0x251c	; 0x251c <__floatsisf>
    15f8:	20 e0       	ldi	r18, 0x00	; 0
    15fa:	30 e0       	ldi	r19, 0x00	; 0
    15fc:	40 e0       	ldi	r20, 0x00	; 0
    15fe:	58 e3       	ldi	r21, 0x38	; 56
    1600:	0e 94 1a 13 	call	0x2634	; 0x2634 <__mulsf3>
    1604:	0e 94 56 12 	call	0x24ac	; 0x24ac <__fixsfsi>
    1608:	4b 01       	movw	r8, r22
    160a:	5c 01       	movw	r10, r24
    160c:	6d a1       	ldd	r22, Y+37	; 0x25
    160e:	7e a1       	ldd	r23, Y+38	; 0x26
    1610:	07 2e       	mov	r0, r23
    1612:	00 0c       	add	r0, r0
    1614:	88 0b       	sbc	r24, r24
    1616:	99 0b       	sbc	r25, r25
    1618:	0e 94 8e 12 	call	0x251c	; 0x251c <__floatsisf>
    161c:	20 e0       	ldi	r18, 0x00	; 0
    161e:	30 e0       	ldi	r19, 0x00	; 0
    1620:	40 e0       	ldi	r20, 0x00	; 0
    1622:	55 e4       	ldi	r21, 0x45	; 69
    1624:	0e 94 1a 13 	call	0x2634	; 0x2634 <__mulsf3>
    1628:	2b 01       	movw	r4, r22
    162a:	3c 01       	movw	r6, r24
    162c:	6f a1       	ldd	r22, Y+39	; 0x27
    162e:	78 a5       	ldd	r23, Y+40	; 0x28
    1630:	cb 01       	movw	r24, r22
    1632:	77 0f       	add	r23, r23
    1634:	aa 0b       	sbc	r26, r26
    1636:	bb 0b       	sbc	r27, r27
    1638:	bc 01       	movw	r22, r24
    163a:	cd 01       	movw	r24, r26
    163c:	68 0d       	add	r22, r8
    163e:	79 1d       	adc	r23, r9
    1640:	8a 1d       	adc	r24, r10
    1642:	9b 1d       	adc	r25, r11
    1644:	0e 94 8e 12 	call	0x251c	; 0x251c <__floatsisf>
    1648:	9b 01       	movw	r18, r22
    164a:	ac 01       	movw	r20, r24
    164c:	c3 01       	movw	r24, r6
    164e:	b2 01       	movw	r22, r4
    1650:	0e 94 e4 11 	call	0x23c8	; 0x23c8 <__divsf3>
    1654:	0e 94 56 12 	call	0x24ac	; 0x24ac <__fixsfsi>
    1658:	24 01       	movw	r4, r8
    165a:	35 01       	movw	r6, r10
    165c:	46 0e       	add	r4, r22
    165e:	57 1e       	adc	r5, r23
    1660:	68 1e       	adc	r6, r24
    1662:	79 1e       	adc	r7, r25
    1664:	c9 a6       	std	Y+41, r12	; 0x29
    1666:	da a6       	std	Y+42, r13	; 0x2a
    1668:	eb a6       	std	Y+43, r14	; 0x2b
    166a:	fc a6       	std	Y+44, r15	; 0x2c
    166c:	89 aa       	std	Y+49, r8	; 0x31
    166e:	9a aa       	std	Y+50, r9	; 0x32
    1670:	ab aa       	std	Y+51, r10	; 0x33
    1672:	bc aa       	std	Y+52, r11	; 0x34
    1674:	6d ab       	std	Y+53, r22	; 0x35
    1676:	7e ab       	std	Y+54, r23	; 0x36
    1678:	8f ab       	std	Y+55, r24	; 0x37
    167a:	98 af       	std	Y+56, r25	; 0x38
    167c:	29 96       	adiw	r28, 0x09	; 9
    167e:	4c ae       	std	Y+60, r4	; 0x3c
    1680:	5d ae       	std	Y+61, r5	; 0x3d
    1682:	6e ae       	std	Y+62, r6	; 0x3e
    1684:	7f ae       	std	Y+63, r7	; 0x3f
    1686:	29 97       	sbiw	r28, 0x09	; 9
    1688:	c3 01       	movw	r24, r6
    168a:	b2 01       	movw	r22, r4
    168c:	68 5f       	subi	r22, 0xF8	; 248
    168e:	7f 4f       	sbci	r23, 0xFF	; 255
    1690:	8f 4f       	sbci	r24, 0xFF	; 255
    1692:	9f 4f       	sbci	r25, 0xFF	; 255
    1694:	0e 94 8e 12 	call	0x251c	; 0x251c <__floatsisf>
    1698:	20 e0       	ldi	r18, 0x00	; 0
    169a:	30 e0       	ldi	r19, 0x00	; 0
    169c:	40 e8       	ldi	r20, 0x80	; 128
    169e:	5d e3       	ldi	r21, 0x3D	; 61
    16a0:	0e 94 1a 13 	call	0x2634	; 0x2634 <__mulsf3>
    16a4:	0e 94 56 12 	call	0x24ac	; 0x24ac <__fixsfsi>
    16a8:	65 96       	adiw	r28, 0x15	; 21
    16aa:	6c af       	std	Y+60, r22	; 0x3c
    16ac:	7d af       	std	Y+61, r23	; 0x3d
    16ae:	8e af       	std	Y+62, r24	; 0x3e
    16b0:	9f af       	std	Y+63, r25	; 0x3f
    16b2:	65 97       	sbiw	r28, 0x15	; 21
    16b4:	86 e4       	ldi	r24, 0x46	; 70
    16b6:	fe 01       	movw	r30, r28
    16b8:	73 96       	adiw	r30, 0x13	; 19
    16ba:	d8 01       	movw	r26, r16
    16bc:	01 90       	ld	r0, Z+
    16be:	0d 92       	st	X+, r0
    16c0:	8a 95       	dec	r24
    16c2:	e1 f7       	brne	.-8      	; 0x16bc <getTemp+0x1ae>
    16c4:	c8 01       	movw	r24, r16
    16c6:	df 91       	pop	r29
    16c8:	cf 91       	pop	r28
    16ca:	1f 91       	pop	r17
    16cc:	0f 91       	pop	r16
    16ce:	ff 90       	pop	r15
    16d0:	ef 90       	pop	r14
    16d2:	df 90       	pop	r13
    16d4:	cf 90       	pop	r12
    16d6:	bf 90       	pop	r11
    16d8:	af 90       	pop	r10
    16da:	9f 90       	pop	r9
    16dc:	8f 90       	pop	r8
    16de:	7f 90       	pop	r7
    16e0:	6f 90       	pop	r6
    16e2:	5f 90       	pop	r5
    16e4:	4f 90       	pop	r4
    16e6:	08 95       	ret

000016e8 <getPressure>:
    16e8:	4f 92       	push	r4
    16ea:	5f 92       	push	r5
    16ec:	6f 92       	push	r6
    16ee:	7f 92       	push	r7
    16f0:	8f 92       	push	r8
    16f2:	9f 92       	push	r9
    16f4:	af 92       	push	r10
    16f6:	bf 92       	push	r11
    16f8:	cf 92       	push	r12
    16fa:	df 92       	push	r13
    16fc:	ef 92       	push	r14
    16fe:	ff 92       	push	r15
    1700:	0f 93       	push	r16
    1702:	1f 93       	push	r17
    1704:	cf 93       	push	r28
    1706:	df 93       	push	r29
    1708:	cd b7       	in	r28, 0x3d	; 61
    170a:	de b7       	in	r29, 0x3e	; 62
    170c:	68 97       	sbiw	r28, 0x18	; 24
    170e:	0f b6       	in	r0, 0x3f	; 63
    1710:	f8 94       	cli
    1712:	de bf       	out	0x3e, r29	; 62
    1714:	0f be       	out	0x3f, r0	; 63
    1716:	cd bf       	out	0x3d, r28	; 61
    1718:	8c 01       	movw	r16, r24
    171a:	8e ee       	ldi	r24, 0xEE	; 238
    171c:	0e 94 8d 08 	call	0x111a	; 0x111a <i2c_start>
    1720:	84 ef       	ldi	r24, 0xF4	; 244
    1722:	80 93 bb 00 	sts	0x00BB, r24
    1726:	84 e8       	ldi	r24, 0x84	; 132
    1728:	80 93 bc 00 	sts	0x00BC, r24
    172c:	80 91 bc 00 	lds	r24, 0x00BC
    1730:	87 ff       	sbrs	r24, 7
    1732:	fc cf       	rjmp	.-8      	; 0x172c <getPressure+0x44>
    1734:	80 91 b9 00 	lds	r24, 0x00B9
    1738:	84 e3       	ldi	r24, 0x34	; 52
    173a:	80 93 bb 00 	sts	0x00BB, r24
    173e:	84 e8       	ldi	r24, 0x84	; 132
    1740:	80 93 bc 00 	sts	0x00BC, r24
    1744:	80 91 bc 00 	lds	r24, 0x00BC
    1748:	87 ff       	sbrs	r24, 7
    174a:	fc cf       	rjmp	.-8      	; 0x1744 <getPressure+0x5c>
    174c:	80 91 b9 00 	lds	r24, 0x00B9
    1750:	84 e9       	ldi	r24, 0x94	; 148
    1752:	80 93 bc 00 	sts	0x00BC, r24
    1756:	8f e3       	ldi	r24, 0x3F	; 63
    1758:	9c e9       	ldi	r25, 0x9C	; 156
    175a:	01 97       	sbiw	r24, 0x01	; 1
    175c:	f1 f7       	brne	.-4      	; 0x175a <getPressure+0x72>
    175e:	00 c0       	rjmp	.+0      	; 0x1760 <getPressure+0x78>
    1760:	00 00       	nop
    1762:	8e ee       	ldi	r24, 0xEE	; 238
    1764:	0e 94 8d 08 	call	0x111a	; 0x111a <i2c_start>
    1768:	86 ef       	ldi	r24, 0xF6	; 246
    176a:	80 93 bb 00 	sts	0x00BB, r24
    176e:	84 e8       	ldi	r24, 0x84	; 132
    1770:	80 93 bc 00 	sts	0x00BC, r24
    1774:	80 91 bc 00 	lds	r24, 0x00BC
    1778:	87 ff       	sbrs	r24, 7
    177a:	fc cf       	rjmp	.-8      	; 0x1774 <getPressure+0x8c>
    177c:	80 91 b9 00 	lds	r24, 0x00B9
    1780:	84 e9       	ldi	r24, 0x94	; 148
    1782:	80 93 bc 00 	sts	0x00BC, r24
    1786:	8f ee       	ldi	r24, 0xEF	; 239
    1788:	0e 94 8d 08 	call	0x111a	; 0x111a <i2c_start>
    178c:	84 ec       	ldi	r24, 0xC4	; 196
    178e:	80 93 bc 00 	sts	0x00BC, r24
    1792:	80 91 bc 00 	lds	r24, 0x00BC
    1796:	87 ff       	sbrs	r24, 7
    1798:	fc cf       	rjmp	.-8      	; 0x1792 <getPressure+0xaa>
    179a:	40 91 bb 00 	lds	r20, 0x00BB
    179e:	50 e0       	ldi	r21, 0x00	; 0
    17a0:	54 2f       	mov	r21, r20
    17a2:	44 27       	eor	r20, r20
    17a4:	60 e0       	ldi	r22, 0x00	; 0
    17a6:	70 e0       	ldi	r23, 0x00	; 0
    17a8:	84 ec       	ldi	r24, 0xC4	; 196
    17aa:	80 93 bc 00 	sts	0x00BC, r24
    17ae:	80 91 bc 00 	lds	r24, 0x00BC
    17b2:	87 ff       	sbrs	r24, 7
    17b4:	fc cf       	rjmp	.-8      	; 0x17ae <getPressure+0xc6>
    17b6:	80 91 bb 00 	lds	r24, 0x00BB
    17ba:	6a 01       	movw	r12, r20
    17bc:	7b 01       	movw	r14, r22
    17be:	c8 2a       	or	r12, r24
    17c0:	cd 82       	std	Y+5, r12	; 0x05
    17c2:	de 82       	std	Y+6, r13	; 0x06
    17c4:	ef 82       	std	Y+7, r14	; 0x07
    17c6:	f8 86       	std	Y+8, r15	; 0x08
    17c8:	84 e9       	ldi	r24, 0x94	; 148
    17ca:	80 93 bc 00 	sts	0x00BC, r24
    17ce:	a1 96       	adiw	r28, 0x21	; 33
    17d0:	8c ad       	ldd	r24, Y+60	; 0x3c
    17d2:	9d ad       	ldd	r25, Y+61	; 0x3d
    17d4:	ae ad       	ldd	r26, Y+62	; 0x3e
    17d6:	bf ad       	ldd	r27, Y+63	; 0x3f
    17d8:	a1 97       	sbiw	r28, 0x21	; 33
    17da:	2c 01       	movw	r4, r24
    17dc:	3d 01       	movw	r6, r26
    17de:	20 ea       	ldi	r18, 0xA0	; 160
    17e0:	42 1a       	sub	r4, r18
    17e2:	2f e0       	ldi	r18, 0x0F	; 15
    17e4:	52 0a       	sbc	r5, r18
    17e6:	61 08       	sbc	r6, r1
    17e8:	71 08       	sbc	r7, r1
    17ea:	a3 01       	movw	r20, r6
    17ec:	92 01       	movw	r18, r4
    17ee:	c3 01       	movw	r24, r6
    17f0:	b2 01       	movw	r22, r4
    17f2:	0e 94 fe 10 	call	0x21fc	; 0x21fc <__mulsi3>
    17f6:	0e 94 8e 12 	call	0x251c	; 0x251c <__floatsisf>
    17fa:	20 e0       	ldi	r18, 0x00	; 0
    17fc:	30 e0       	ldi	r19, 0x00	; 0
    17fe:	40 e8       	ldi	r20, 0x80	; 128
    1800:	59 e3       	ldi	r21, 0x39	; 57
    1802:	0e 94 1a 13 	call	0x2634	; 0x2634 <__mulsf3>
    1806:	6b 01       	movw	r12, r22
    1808:	7c 01       	movw	r14, r24
    180a:	6b a5       	ldd	r22, Y+43	; 0x2b
    180c:	7c a5       	ldd	r23, Y+44	; 0x2c
    180e:	07 2e       	mov	r0, r23
    1810:	00 0c       	add	r0, r0
    1812:	88 0b       	sbc	r24, r24
    1814:	99 0b       	sbc	r25, r25
    1816:	0e 94 8e 12 	call	0x251c	; 0x251c <__floatsisf>
    181a:	20 e0       	ldi	r18, 0x00	; 0
    181c:	30 e0       	ldi	r19, 0x00	; 0
    181e:	40 e8       	ldi	r20, 0x80	; 128
    1820:	50 e4       	ldi	r21, 0x40	; 64
    1822:	0e 94 1a 13 	call	0x2634	; 0x2634 <__mulsf3>
    1826:	4b 01       	movw	r8, r22
    1828:	5c 01       	movw	r10, r24
    182a:	69 ad       	ldd	r22, Y+57	; 0x39
    182c:	7a ad       	ldd	r23, Y+58	; 0x3a
    182e:	07 2e       	mov	r0, r23
    1830:	00 0c       	add	r0, r0
    1832:	88 0b       	sbc	r24, r24
    1834:	99 0b       	sbc	r25, r25
    1836:	0e 94 8e 12 	call	0x251c	; 0x251c <__floatsisf>
    183a:	a7 01       	movw	r20, r14
    183c:	96 01       	movw	r18, r12
    183e:	0e 94 1a 13 	call	0x2634	; 0x2634 <__mulsf3>
    1842:	20 e0       	ldi	r18, 0x00	; 0
    1844:	30 e0       	ldi	r19, 0x00	; 0
    1846:	40 e0       	ldi	r20, 0x00	; 0
    1848:	5a e3       	ldi	r21, 0x3A	; 58
    184a:	0e 94 1a 13 	call	0x2634	; 0x2634 <__mulsf3>
    184e:	0e 94 56 12 	call	0x24ac	; 0x24ac <__fixsfsi>
    1852:	69 83       	std	Y+1, r22	; 0x01
    1854:	7a 83       	std	Y+2, r23	; 0x02
    1856:	8b 83       	std	Y+3, r24	; 0x03
    1858:	9c 83       	std	Y+4, r25	; 0x04
    185a:	ad a5       	ldd	r26, Y+45	; 0x2d
    185c:	be a5       	ldd	r27, Y+46	; 0x2e
    185e:	a3 01       	movw	r20, r6
    1860:	92 01       	movw	r18, r4
    1862:	0e 94 6f 11 	call	0x22de	; 0x22de <__mulshisi3>
    1866:	0e 94 8e 12 	call	0x251c	; 0x251c <__floatsisf>
    186a:	20 e0       	ldi	r18, 0x00	; 0
    186c:	30 e0       	ldi	r19, 0x00	; 0
    186e:	40 e0       	ldi	r20, 0x00	; 0
    1870:	5a e3       	ldi	r21, 0x3A	; 58
    1872:	0e 94 1a 13 	call	0x2634	; 0x2634 <__mulsf3>
    1876:	0e 94 56 12 	call	0x24ac	; 0x24ac <__fixsfsi>
    187a:	29 81       	ldd	r18, Y+1	; 0x01
    187c:	3a 81       	ldd	r19, Y+2	; 0x02
    187e:	4b 81       	ldd	r20, Y+3	; 0x03
    1880:	5c 81       	ldd	r21, Y+4	; 0x04
    1882:	62 0f       	add	r22, r18
    1884:	73 1f       	adc	r23, r19
    1886:	84 1f       	adc	r24, r20
    1888:	95 1f       	adc	r25, r21
    188a:	0e 94 8e 12 	call	0x251c	; 0x251c <__floatsisf>
    188e:	9b 01       	movw	r18, r22
    1890:	ac 01       	movw	r20, r24
    1892:	c5 01       	movw	r24, r10
    1894:	b4 01       	movw	r22, r8
    1896:	0e 94 78 11 	call	0x22f0	; 0x22f0 <__addsf3>
    189a:	20 e0       	ldi	r18, 0x00	; 0
    189c:	30 e0       	ldi	r19, 0x00	; 0
    189e:	40 e0       	ldi	r20, 0x00	; 0
    18a0:	50 e4       	ldi	r21, 0x40	; 64
    18a2:	0e 94 78 11 	call	0x22f0	; 0x22f0 <__addsf3>
    18a6:	20 e0       	ldi	r18, 0x00	; 0
    18a8:	30 e0       	ldi	r19, 0x00	; 0
    18aa:	40 e8       	ldi	r20, 0x80	; 128
    18ac:	5e e3       	ldi	r21, 0x3E	; 62
    18ae:	0e 94 1a 13 	call	0x2634	; 0x2634 <__mulsf3>
    18b2:	0e 94 56 12 	call	0x24ac	; 0x24ac <__fixsfsi>
    18b6:	69 83       	std	Y+1, r22	; 0x01
    18b8:	7a 83       	std	Y+2, r23	; 0x02
    18ba:	8b 83       	std	Y+3, r24	; 0x03
    18bc:	9c 83       	std	Y+4, r25	; 0x04
    18be:	af a5       	ldd	r26, Y+47	; 0x2f
    18c0:	b8 a9       	ldd	r27, Y+48	; 0x30
    18c2:	a3 01       	movw	r20, r6
    18c4:	92 01       	movw	r18, r4
    18c6:	0e 94 6f 11 	call	0x22de	; 0x22de <__mulshisi3>
    18ca:	0e 94 8e 12 	call	0x251c	; 0x251c <__floatsisf>
    18ce:	20 e0       	ldi	r18, 0x00	; 0
    18d0:	30 e0       	ldi	r19, 0x00	; 0
    18d2:	40 e0       	ldi	r20, 0x00	; 0
    18d4:	59 e3       	ldi	r21, 0x39	; 57
    18d6:	0e 94 1a 13 	call	0x2634	; 0x2634 <__mulsf3>
    18da:	0e 94 56 12 	call	0x24ac	; 0x24ac <__fixsfsi>
    18de:	4b 01       	movw	r8, r22
    18e0:	5c 01       	movw	r10, r24
    18e2:	6f a9       	ldd	r22, Y+55	; 0x37
    18e4:	78 ad       	ldd	r23, Y+56	; 0x38
    18e6:	07 2e       	mov	r0, r23
    18e8:	00 0c       	add	r0, r0
    18ea:	88 0b       	sbc	r24, r24
    18ec:	99 0b       	sbc	r25, r25
    18ee:	0e 94 8e 12 	call	0x251c	; 0x251c <__floatsisf>
    18f2:	9b 01       	movw	r18, r22
    18f4:	ac 01       	movw	r20, r24
    18f6:	c7 01       	movw	r24, r14
    18f8:	b6 01       	movw	r22, r12
    18fa:	0e 94 1a 13 	call	0x2634	; 0x2634 <__mulsf3>
    18fe:	20 e0       	ldi	r18, 0x00	; 0
    1900:	30 e0       	ldi	r19, 0x00	; 0
    1902:	40 e8       	ldi	r20, 0x80	; 128
    1904:	57 e3       	ldi	r21, 0x37	; 55
    1906:	0e 94 1a 13 	call	0x2634	; 0x2634 <__mulsf3>
    190a:	0e 94 56 12 	call	0x24ac	; 0x24ac <__fixsfsi>
    190e:	dc 01       	movw	r26, r24
    1910:	cb 01       	movw	r24, r22
    1912:	88 0d       	add	r24, r8
    1914:	99 1d       	adc	r25, r9
    1916:	aa 1d       	adc	r26, r10
    1918:	bb 1d       	adc	r27, r11
    191a:	bc 01       	movw	r22, r24
    191c:	cd 01       	movw	r24, r26
    191e:	6e 5f       	subi	r22, 0xFE	; 254
    1920:	7f 4f       	sbci	r23, 0xFF	; 255
    1922:	8f 4f       	sbci	r24, 0xFF	; 255
    1924:	9f 4f       	sbci	r25, 0xFF	; 255
    1926:	0e 94 8e 12 	call	0x251c	; 0x251c <__floatsisf>
    192a:	20 e0       	ldi	r18, 0x00	; 0
    192c:	30 e0       	ldi	r19, 0x00	; 0
    192e:	40 e8       	ldi	r20, 0x80	; 128
    1930:	5e e3       	ldi	r21, 0x3E	; 62
    1932:	0e 94 1a 13 	call	0x2634	; 0x2634 <__mulsf3>
    1936:	0e 94 56 12 	call	0x24ac	; 0x24ac <__fixsfsi>
    193a:	69 87       	std	Y+9, r22	; 0x09
    193c:	7a 87       	std	Y+10, r23	; 0x0a
    193e:	8b 87       	std	Y+11, r24	; 0x0b
    1940:	9c 87       	std	Y+12, r25	; 0x0c
    1942:	9b 01       	movw	r18, r22
    1944:	ac 01       	movw	r20, r24
    1946:	30 58       	subi	r19, 0x80	; 128
    1948:	4f 4f       	sbci	r20, 0xFF	; 255
    194a:	5f 4f       	sbci	r21, 0xFF	; 255
    194c:	a9 a9       	ldd	r26, Y+49	; 0x31
    194e:	ba a9       	ldd	r27, Y+50	; 0x32
    1950:	0e 94 64 11 	call	0x22c8	; 0x22c8 <__muluhisi3>
    1954:	0e 94 8c 12 	call	0x2518	; 0x2518 <__floatunsisf>
    1958:	20 e0       	ldi	r18, 0x00	; 0
    195a:	30 e0       	ldi	r19, 0x00	; 0
    195c:	40 e0       	ldi	r20, 0x00	; 0
    195e:	58 e3       	ldi	r21, 0x38	; 56
    1960:	0e 94 1a 13 	call	0x2634	; 0x2634 <__mulsf3>
    1964:	0e 94 56 12 	call	0x24ac	; 0x24ac <__fixsfsi>
    1968:	6d 87       	std	Y+13, r22	; 0x0d
    196a:	7e 87       	std	Y+14, r23	; 0x0e
    196c:	8f 87       	std	Y+15, r24	; 0x0f
    196e:	98 8b       	std	Y+16, r25	; 0x10
    1970:	2d 81       	ldd	r18, Y+5	; 0x05
    1972:	3e 81       	ldd	r19, Y+6	; 0x06
    1974:	4f 81       	ldd	r20, Y+7	; 0x07
    1976:	58 85       	ldd	r21, Y+8	; 0x08
    1978:	c9 80       	ldd	r12, Y+1	; 0x01
    197a:	da 80       	ldd	r13, Y+2	; 0x02
    197c:	eb 80       	ldd	r14, Y+3	; 0x03
    197e:	fc 80       	ldd	r15, Y+4	; 0x04
    1980:	2c 19       	sub	r18, r12
    1982:	3d 09       	sbc	r19, r13
    1984:	4e 09       	sbc	r20, r14
    1986:	5f 09       	sbc	r21, r15
    1988:	a0 e5       	ldi	r26, 0x50	; 80
    198a:	b3 ec       	ldi	r27, 0xC3	; 195
    198c:	0e 94 64 11 	call	0x22c8	; 0x22c8 <__muluhisi3>
    1990:	4b 01       	movw	r8, r22
    1992:	5c 01       	movw	r10, r24
    1994:	97 fd       	sbrc	r25, 7
    1996:	dc c0       	rjmp	.+440    	; 0x1b50 <getPressure+0x468>
    1998:	0e 94 8e 12 	call	0x251c	; 0x251c <__floatsisf>
    199c:	9b 01       	movw	r18, r22
    199e:	ac 01       	movw	r20, r24
    19a0:	0e 94 78 11 	call	0x22f0	; 0x22f0 <__addsf3>
    19a4:	6b 01       	movw	r12, r22
    19a6:	7c 01       	movw	r14, r24
    19a8:	6d 85       	ldd	r22, Y+13	; 0x0d
    19aa:	7e 85       	ldd	r23, Y+14	; 0x0e
    19ac:	8f 85       	ldd	r24, Y+15	; 0x0f
    19ae:	98 89       	ldd	r25, Y+16	; 0x10
    19b0:	0e 94 8e 12 	call	0x251c	; 0x251c <__floatsisf>
    19b4:	9b 01       	movw	r18, r22
    19b6:	ac 01       	movw	r20, r24
    19b8:	c7 01       	movw	r24, r14
    19ba:	b6 01       	movw	r22, r12
    19bc:	0e 94 e4 11 	call	0x23c8	; 0x23c8 <__divsf3>
    19c0:	0e 94 56 12 	call	0x24ac	; 0x24ac <__fixsfsi>
    19c4:	69 8b       	std	Y+17, r22	; 0x11
    19c6:	7a 8b       	std	Y+18, r23	; 0x12
    19c8:	8b 8b       	std	Y+19, r24	; 0x13
    19ca:	9c 8b       	std	Y+20, r25	; 0x14
    19cc:	69 89       	ldd	r22, Y+17	; 0x11
    19ce:	7a 89       	ldd	r23, Y+18	; 0x12
    19d0:	8b 89       	ldd	r24, Y+19	; 0x13
    19d2:	9c 89       	ldd	r25, Y+20	; 0x14
    19d4:	0e 94 8e 12 	call	0x251c	; 0x251c <__floatsisf>
    19d8:	6b 01       	movw	r12, r22
    19da:	7c 01       	movw	r14, r24
    19dc:	20 e0       	ldi	r18, 0x00	; 0
    19de:	30 e0       	ldi	r19, 0x00	; 0
    19e0:	40 e8       	ldi	r20, 0x80	; 128
    19e2:	5b e3       	ldi	r21, 0x3B	; 59
    19e4:	0e 94 1a 13 	call	0x2634	; 0x2634 <__mulsf3>
    19e8:	9b 01       	movw	r18, r22
    19ea:	ac 01       	movw	r20, r24
    19ec:	0e 94 1a 13 	call	0x2634	; 0x2634 <__mulsf3>
    19f0:	0e 94 56 12 	call	0x24ac	; 0x24ac <__fixsfsi>
    19f4:	9b 01       	movw	r18, r22
    19f6:	ac 01       	movw	r20, r24
    19f8:	ae ed       	ldi	r26, 0xDE	; 222
    19fa:	bb e0       	ldi	r27, 0x0B	; 11
    19fc:	0e 94 64 11 	call	0x22c8	; 0x22c8 <__muluhisi3>
    1a00:	0e 94 8e 12 	call	0x251c	; 0x251c <__floatsisf>
    1a04:	20 e0       	ldi	r18, 0x00	; 0
    1a06:	30 e0       	ldi	r19, 0x00	; 0
    1a08:	40 e8       	ldi	r20, 0x80	; 128
    1a0a:	57 e3       	ldi	r21, 0x37	; 55
    1a0c:	0e 94 1a 13 	call	0x2634	; 0x2634 <__mulsf3>
    1a10:	0e 94 56 12 	call	0x24ac	; 0x24ac <__fixsfsi>
    1a14:	6d 8b       	std	Y+21, r22	; 0x15
    1a16:	7e 8b       	std	Y+22, r23	; 0x16
    1a18:	8f 8b       	std	Y+23, r24	; 0x17
    1a1a:	98 8f       	std	Y+24, r25	; 0x18
    1a1c:	a3 e4       	ldi	r26, 0x43	; 67
    1a1e:	b3 ee       	ldi	r27, 0xE3	; 227
    1a20:	29 89       	ldd	r18, Y+17	; 0x11
    1a22:	3a 89       	ldd	r19, Y+18	; 0x12
    1a24:	4b 89       	ldd	r20, Y+19	; 0x13
    1a26:	5c 89       	ldd	r21, Y+20	; 0x14
    1a28:	0e 94 72 11 	call	0x22e4	; 0x22e4 <__mulohisi3>
    1a2c:	0e 94 8e 12 	call	0x251c	; 0x251c <__floatsisf>
    1a30:	20 e0       	ldi	r18, 0x00	; 0
    1a32:	30 e0       	ldi	r19, 0x00	; 0
    1a34:	40 e8       	ldi	r20, 0x80	; 128
    1a36:	57 e3       	ldi	r21, 0x37	; 55
    1a38:	0e 94 1a 13 	call	0x2634	; 0x2634 <__mulsf3>
    1a3c:	0e 94 56 12 	call	0x24ac	; 0x24ac <__fixsfsi>
    1a40:	2d 81       	ldd	r18, Y+5	; 0x05
    1a42:	3e 81       	ldd	r19, Y+6	; 0x06
    1a44:	4f 81       	ldd	r20, Y+7	; 0x07
    1a46:	58 85       	ldd	r21, Y+8	; 0x08
    1a48:	29 96       	adiw	r28, 0x09	; 9
    1a4a:	2c af       	std	Y+60, r18	; 0x3c
    1a4c:	3d af       	std	Y+61, r19	; 0x3d
    1a4e:	4e af       	std	Y+62, r20	; 0x3e
    1a50:	5f af       	std	Y+63, r21	; 0x3f
    1a52:	29 97       	sbiw	r28, 0x09	; 9
    1a54:	2d 89       	ldd	r18, Y+21	; 0x15
    1a56:	3e 89       	ldd	r19, Y+22	; 0x16
    1a58:	4f 89       	ldd	r20, Y+23	; 0x17
    1a5a:	58 8d       	ldd	r21, Y+24	; 0x18
    1a5c:	2d 96       	adiw	r28, 0x0d	; 13
    1a5e:	2c af       	std	Y+60, r18	; 0x3c
    1a60:	3d af       	std	Y+61, r19	; 0x3d
    1a62:	4e af       	std	Y+62, r20	; 0x3e
    1a64:	5f af       	std	Y+63, r21	; 0x3f
    1a66:	2d 97       	sbiw	r28, 0x0d	; 13
    1a68:	61 96       	adiw	r28, 0x11	; 17
    1a6a:	6c af       	std	Y+60, r22	; 0x3c
    1a6c:	7d af       	std	Y+61, r23	; 0x3d
    1a6e:	8e af       	std	Y+62, r24	; 0x3e
    1a70:	9f af       	std	Y+63, r25	; 0x3f
    1a72:	61 97       	sbiw	r28, 0x11	; 17
    1a74:	29 85       	ldd	r18, Y+9	; 0x09
    1a76:	3a 85       	ldd	r19, Y+10	; 0x0a
    1a78:	4b 85       	ldd	r20, Y+11	; 0x0b
    1a7a:	5c 85       	ldd	r21, Y+12	; 0x0c
    1a7c:	65 96       	adiw	r28, 0x15	; 21
    1a7e:	2c af       	std	Y+60, r18	; 0x3c
    1a80:	3d af       	std	Y+61, r19	; 0x3d
    1a82:	4e af       	std	Y+62, r20	; 0x3e
    1a84:	5f af       	std	Y+63, r21	; 0x3f
    1a86:	65 97       	sbiw	r28, 0x15	; 21
    1a88:	29 81       	ldd	r18, Y+1	; 0x01
    1a8a:	3a 81       	ldd	r19, Y+2	; 0x02
    1a8c:	4b 81       	ldd	r20, Y+3	; 0x03
    1a8e:	5c 81       	ldd	r21, Y+4	; 0x04
    1a90:	69 96       	adiw	r28, 0x19	; 25
    1a92:	2c af       	std	Y+60, r18	; 0x3c
    1a94:	3d af       	std	Y+61, r19	; 0x3d
    1a96:	4e af       	std	Y+62, r20	; 0x3e
    1a98:	5f af       	std	Y+63, r21	; 0x3f
    1a9a:	69 97       	sbiw	r28, 0x19	; 25
    1a9c:	2d 85       	ldd	r18, Y+13	; 0x0d
    1a9e:	3e 85       	ldd	r19, Y+14	; 0x0e
    1aa0:	4f 85       	ldd	r20, Y+15	; 0x0f
    1aa2:	58 89       	ldd	r21, Y+16	; 0x10
    1aa4:	6d 96       	adiw	r28, 0x1d	; 29
    1aa6:	2c af       	std	Y+60, r18	; 0x3c
    1aa8:	3d af       	std	Y+61, r19	; 0x3d
    1aaa:	4e af       	std	Y+62, r20	; 0x3e
    1aac:	5f af       	std	Y+63, r21	; 0x3f
    1aae:	6d 97       	sbiw	r28, 0x1d	; 29
    1ab0:	a5 96       	adiw	r28, 0x25	; 37
    1ab2:	4c ae       	std	Y+60, r4	; 0x3c
    1ab4:	5d ae       	std	Y+61, r5	; 0x3d
    1ab6:	6e ae       	std	Y+62, r6	; 0x3e
    1ab8:	7f ae       	std	Y+63, r7	; 0x3f
    1aba:	a5 97       	sbiw	r28, 0x25	; 37
    1abc:	a9 96       	adiw	r28, 0x29	; 41
    1abe:	8c ae       	std	Y+60, r8	; 0x3c
    1ac0:	9d ae       	std	Y+61, r9	; 0x3d
    1ac2:	ae ae       	std	Y+62, r10	; 0x3e
    1ac4:	bf ae       	std	Y+63, r11	; 0x3f
    1ac6:	a9 97       	sbiw	r28, 0x29	; 41
    1ac8:	2d 89       	ldd	r18, Y+21	; 0x15
    1aca:	3e 89       	ldd	r19, Y+22	; 0x16
    1acc:	4f 89       	ldd	r20, Y+23	; 0x17
    1ace:	58 8d       	ldd	r21, Y+24	; 0x18
    1ad0:	26 0f       	add	r18, r22
    1ad2:	37 1f       	adc	r19, r23
    1ad4:	48 1f       	adc	r20, r24
    1ad6:	59 1f       	adc	r21, r25
    1ad8:	ca 01       	movw	r24, r20
    1ada:	b9 01       	movw	r22, r18
    1adc:	61 53       	subi	r22, 0x31	; 49
    1ade:	71 4f       	sbci	r23, 0xF1	; 241
    1ae0:	8f 4f       	sbci	r24, 0xFF	; 255
    1ae2:	9f 4f       	sbci	r25, 0xFF	; 255
    1ae4:	0e 94 8e 12 	call	0x251c	; 0x251c <__floatsisf>
    1ae8:	20 e0       	ldi	r18, 0x00	; 0
    1aea:	30 e0       	ldi	r19, 0x00	; 0
    1aec:	40 e8       	ldi	r20, 0x80	; 128
    1aee:	5d e3       	ldi	r21, 0x3D	; 61
    1af0:	0e 94 1a 13 	call	0x2634	; 0x2634 <__mulsf3>
    1af4:	9b 01       	movw	r18, r22
    1af6:	ac 01       	movw	r20, r24
    1af8:	c7 01       	movw	r24, r14
    1afa:	b6 01       	movw	r22, r12
    1afc:	0e 94 78 11 	call	0x22f0	; 0x22f0 <__addsf3>
    1b00:	0e 94 56 12 	call	0x24ac	; 0x24ac <__fixsfsi>
    1b04:	e1 96       	adiw	r28, 0x31	; 49
    1b06:	6c af       	std	Y+60, r22	; 0x3c
    1b08:	7d af       	std	Y+61, r23	; 0x3d
    1b0a:	8e af       	std	Y+62, r24	; 0x3e
    1b0c:	9f af       	std	Y+63, r25	; 0x3f
    1b0e:	e1 97       	sbiw	r28, 0x31	; 49
    1b10:	86 e4       	ldi	r24, 0x46	; 70
    1b12:	fe 01       	movw	r30, r28
    1b14:	bb 96       	adiw	r30, 0x2b	; 43
    1b16:	d8 01       	movw	r26, r16
    1b18:	01 90       	ld	r0, Z+
    1b1a:	0d 92       	st	X+, r0
    1b1c:	8a 95       	dec	r24
    1b1e:	e1 f7       	brne	.-8      	; 0x1b18 <getPressure+0x430>
    1b20:	c8 01       	movw	r24, r16
    1b22:	68 96       	adiw	r28, 0x18	; 24
    1b24:	0f b6       	in	r0, 0x3f	; 63
    1b26:	f8 94       	cli
    1b28:	de bf       	out	0x3e, r29	; 62
    1b2a:	0f be       	out	0x3f, r0	; 63
    1b2c:	cd bf       	out	0x3d, r28	; 61
    1b2e:	df 91       	pop	r29
    1b30:	cf 91       	pop	r28
    1b32:	1f 91       	pop	r17
    1b34:	0f 91       	pop	r16
    1b36:	ff 90       	pop	r15
    1b38:	ef 90       	pop	r14
    1b3a:	df 90       	pop	r13
    1b3c:	cf 90       	pop	r12
    1b3e:	bf 90       	pop	r11
    1b40:	af 90       	pop	r10
    1b42:	9f 90       	pop	r9
    1b44:	8f 90       	pop	r8
    1b46:	7f 90       	pop	r7
    1b48:	6f 90       	pop	r6
    1b4a:	5f 90       	pop	r5
    1b4c:	4f 90       	pop	r4
    1b4e:	08 95       	ret
    1b50:	2d 85       	ldd	r18, Y+13	; 0x0d
    1b52:	3e 85       	ldd	r19, Y+14	; 0x0e
    1b54:	4f 85       	ldd	r20, Y+15	; 0x0f
    1b56:	58 89       	ldd	r21, Y+16	; 0x10
    1b58:	0e 94 30 11 	call	0x2260	; 0x2260 <__divmodsi4>
    1b5c:	ca 01       	movw	r24, r20
    1b5e:	b9 01       	movw	r22, r18
    1b60:	0e 94 8e 12 	call	0x251c	; 0x251c <__floatsisf>
    1b64:	9b 01       	movw	r18, r22
    1b66:	ac 01       	movw	r20, r24
    1b68:	0e 94 78 11 	call	0x22f0	; 0x22f0 <__addsf3>
    1b6c:	0e 94 56 12 	call	0x24ac	; 0x24ac <__fixsfsi>
    1b70:	69 8b       	std	Y+17, r22	; 0x11
    1b72:	7a 8b       	std	Y+18, r23	; 0x12
    1b74:	8b 8b       	std	Y+19, r24	; 0x13
    1b76:	9c 8b       	std	Y+20, r25	; 0x14
    1b78:	29 cf       	rjmp	.-430    	; 0x19cc <getPressure+0x2e4>

00001b7a <getBmp180Values>:
    1b7a:	cf 93       	push	r28
    1b7c:	df 93       	push	r29
    1b7e:	cd b7       	in	r28, 0x3d	; 61
    1b80:	de b7       	in	r29, 0x3e	; 62
    1b82:	c0 59       	subi	r28, 0x90	; 144
    1b84:	d1 09       	sbc	r29, r1
    1b86:	0f b6       	in	r0, 0x3f	; 63
    1b88:	f8 94       	cli
    1b8a:	de bf       	out	0x3e, r29	; 62
    1b8c:	0f be       	out	0x3f, r0	; 63
    1b8e:	cd bf       	out	0x3d, r28	; 61
    1b90:	8d b7       	in	r24, 0x3d	; 61
    1b92:	9e b7       	in	r25, 0x3e	; 62
    1b94:	86 54       	subi	r24, 0x46	; 70
    1b96:	91 09       	sbc	r25, r1
    1b98:	0f b6       	in	r0, 0x3f	; 63
    1b9a:	f8 94       	cli
    1b9c:	9e bf       	out	0x3e, r25	; 62
    1b9e:	0f be       	out	0x3f, r0	; 63
    1ba0:	8d bf       	out	0x3d, r24	; 61
    1ba2:	ad b7       	in	r26, 0x3d	; 61
    1ba4:	be b7       	in	r27, 0x3e	; 62
    1ba6:	11 96       	adiw	r26, 0x01	; 1
    1ba8:	86 e4       	ldi	r24, 0x46	; 70
    1baa:	fe 01       	movw	r30, r28
    1bac:	31 96       	adiw	r30, 0x01	; 1
    1bae:	01 90       	ld	r0, Z+
    1bb0:	0d 92       	st	X+, r0
    1bb2:	8a 95       	dec	r24
    1bb4:	e1 f7       	brne	.-8      	; 0x1bae <getBmp180Values+0x34>
    1bb6:	ce 01       	movw	r24, r28
    1bb8:	01 96       	adiw	r24, 0x01	; 1
    1bba:	c1 57       	subi	r28, 0x71	; 113
    1bbc:	df 4f       	sbci	r29, 0xFF	; 255
    1bbe:	28 83       	st	Y, r18
    1bc0:	cf 58       	subi	r28, 0x8F	; 143
    1bc2:	d0 40       	sbci	r29, 0x00	; 0
    1bc4:	c0 57       	subi	r28, 0x70	; 112
    1bc6:	df 4f       	sbci	r29, 0xFF	; 255
    1bc8:	38 83       	st	Y, r19
    1bca:	c0 59       	subi	r28, 0x90	; 144
    1bcc:	d0 40       	sbci	r29, 0x00	; 0
    1bce:	c3 57       	subi	r28, 0x73	; 115
    1bd0:	df 4f       	sbci	r29, 0xFF	; 255
    1bd2:	48 83       	st	Y, r20
    1bd4:	cd 58       	subi	r28, 0x8D	; 141
    1bd6:	d0 40       	sbci	r29, 0x00	; 0
    1bd8:	c2 57       	subi	r28, 0x72	; 114
    1bda:	df 4f       	sbci	r29, 0xFF	; 255
    1bdc:	58 83       	st	Y, r21
    1bde:	ce 58       	subi	r28, 0x8E	; 142
    1be0:	d0 40       	sbci	r29, 0x00	; 0
    1be2:	0e 94 cf 08 	call	0x119e	; 0x119e <getCalibrationValues>
    1be6:	8d b7       	in	r24, 0x3d	; 61
    1be8:	9e b7       	in	r25, 0x3e	; 62
    1bea:	8a 5b       	subi	r24, 0xBA	; 186
    1bec:	9f 4f       	sbci	r25, 0xFF	; 255
    1bee:	0f b6       	in	r0, 0x3f	; 63
    1bf0:	f8 94       	cli
    1bf2:	de bf       	out	0x3e, r29	; 62
    1bf4:	0f be       	out	0x3f, r0	; 63
    1bf6:	cd bf       	out	0x3d, r28	; 61
    1bf8:	86 54       	subi	r24, 0x46	; 70
    1bfa:	91 09       	sbc	r25, r1
    1bfc:	0f b6       	in	r0, 0x3f	; 63
    1bfe:	f8 94       	cli
    1c00:	9e bf       	out	0x3e, r25	; 62
    1c02:	0f be       	out	0x3f, r0	; 63
    1c04:	8d bf       	out	0x3d, r24	; 61
    1c06:	ad b7       	in	r26, 0x3d	; 61
    1c08:	be b7       	in	r27, 0x3e	; 62
    1c0a:	11 96       	adiw	r26, 0x01	; 1
    1c0c:	86 e4       	ldi	r24, 0x46	; 70
    1c0e:	fe 01       	movw	r30, r28
    1c10:	31 96       	adiw	r30, 0x01	; 1
    1c12:	01 90       	ld	r0, Z+
    1c14:	0d 92       	st	X+, r0
    1c16:	8a 95       	dec	r24
    1c18:	e1 f7       	brne	.-8      	; 0x1c12 <getBmp180Values+0x98>
    1c1a:	ce 01       	movw	r24, r28
    1c1c:	89 5b       	subi	r24, 0xB9	; 185
    1c1e:	9f 4f       	sbci	r25, 0xFF	; 255
    1c20:	0e 94 87 0a 	call	0x150e	; 0x150e <getTemp>
    1c24:	86 e4       	ldi	r24, 0x46	; 70
    1c26:	fe 01       	movw	r30, r28
    1c28:	e9 5b       	subi	r30, 0xB9	; 185
    1c2a:	ff 4f       	sbci	r31, 0xFF	; 255
    1c2c:	de 01       	movw	r26, r28
    1c2e:	11 96       	adiw	r26, 0x01	; 1
    1c30:	01 90       	ld	r0, Z+
    1c32:	0d 92       	st	X+, r0
    1c34:	8a 95       	dec	r24
    1c36:	e1 f7       	brne	.-8      	; 0x1c30 <getBmp180Values+0xb6>
    1c38:	8d b7       	in	r24, 0x3d	; 61
    1c3a:	9e b7       	in	r25, 0x3e	; 62
    1c3c:	8a 5b       	subi	r24, 0xBA	; 186
    1c3e:	9f 4f       	sbci	r25, 0xFF	; 255
    1c40:	0f b6       	in	r0, 0x3f	; 63
    1c42:	f8 94       	cli
    1c44:	de bf       	out	0x3e, r29	; 62
    1c46:	0f be       	out	0x3f, r0	; 63
    1c48:	cd bf       	out	0x3d, r28	; 61
    1c4a:	86 54       	subi	r24, 0x46	; 70
    1c4c:	91 09       	sbc	r25, r1
    1c4e:	0f b6       	in	r0, 0x3f	; 63
    1c50:	f8 94       	cli
    1c52:	9e bf       	out	0x3e, r25	; 62
    1c54:	0f be       	out	0x3f, r0	; 63
    1c56:	8d bf       	out	0x3d, r24	; 61
    1c58:	ad b7       	in	r26, 0x3d	; 61
    1c5a:	be b7       	in	r27, 0x3e	; 62
    1c5c:	11 96       	adiw	r26, 0x01	; 1
    1c5e:	86 e4       	ldi	r24, 0x46	; 70
    1c60:	fe 01       	movw	r30, r28
    1c62:	31 96       	adiw	r30, 0x01	; 1
    1c64:	01 90       	ld	r0, Z+
    1c66:	0d 92       	st	X+, r0
    1c68:	8a 95       	dec	r24
    1c6a:	e1 f7       	brne	.-8      	; 0x1c64 <getBmp180Values+0xea>
    1c6c:	ce 01       	movw	r24, r28
    1c6e:	89 5b       	subi	r24, 0xB9	; 185
    1c70:	9f 4f       	sbci	r25, 0xFF	; 255
    1c72:	0e 94 74 0b 	call	0x16e8	; 0x16e8 <getPressure>
    1c76:	86 e4       	ldi	r24, 0x46	; 70
    1c78:	fe 01       	movw	r30, r28
    1c7a:	e9 5b       	subi	r30, 0xB9	; 185
    1c7c:	ff 4f       	sbci	r31, 0xFF	; 255
    1c7e:	de 01       	movw	r26, r28
    1c80:	11 96       	adiw	r26, 0x01	; 1
    1c82:	01 90       	ld	r0, Z+
    1c84:	0d 92       	st	X+, r0
    1c86:	8a 95       	dec	r24
    1c88:	e1 f7       	brne	.-8      	; 0x1c82 <getBmp180Values+0x108>
    1c8a:	0f b6       	in	r0, 0x3f	; 63
    1c8c:	f8 94       	cli
    1c8e:	de bf       	out	0x3e, r29	; 62
    1c90:	0f be       	out	0x3f, r0	; 63
    1c92:	cd bf       	out	0x3d, r28	; 61
    1c94:	27 96       	adiw	r28, 0x07	; 7
    1c96:	8f ad       	ldd	r24, Y+63	; 0x3f
    1c98:	27 97       	sbiw	r28, 0x07	; 7
    1c9a:	8f 93       	push	r24
    1c9c:	26 96       	adiw	r28, 0x06	; 6
    1c9e:	8f ad       	ldd	r24, Y+63	; 0x3f
    1ca0:	26 97       	sbiw	r28, 0x06	; 6
    1ca2:	8f 93       	push	r24
    1ca4:	25 96       	adiw	r28, 0x05	; 5
    1ca6:	8f ad       	ldd	r24, Y+63	; 0x3f
    1ca8:	25 97       	sbiw	r28, 0x05	; 5
    1caa:	8f 93       	push	r24
    1cac:	24 96       	adiw	r28, 0x04	; 4
    1cae:	8f ad       	ldd	r24, Y+63	; 0x3f
    1cb0:	24 97       	sbiw	r28, 0x04	; 4
    1cb2:	8f 93       	push	r24
    1cb4:	82 ec       	ldi	r24, 0xC2	; 194
    1cb6:	91 e0       	ldi	r25, 0x01	; 1
    1cb8:	9f 93       	push	r25
    1cba:	8f 93       	push	r24
    1cbc:	c0 57       	subi	r28, 0x70	; 112
    1cbe:	df 4f       	sbci	r29, 0xFF	; 255
    1cc0:	38 81       	ld	r19, Y
    1cc2:	c0 59       	subi	r28, 0x90	; 144
    1cc4:	d0 40       	sbci	r29, 0x00	; 0
    1cc6:	3f 93       	push	r19
    1cc8:	c1 57       	subi	r28, 0x71	; 113
    1cca:	df 4f       	sbci	r29, 0xFF	; 255
    1ccc:	28 81       	ld	r18, Y
    1cce:	cf 58       	subi	r28, 0x8F	; 143
    1cd0:	d0 40       	sbci	r29, 0x00	; 0
    1cd2:	2f 93       	push	r18
    1cd4:	c2 57       	subi	r28, 0x72	; 114
    1cd6:	df 4f       	sbci	r29, 0xFF	; 255
    1cd8:	58 81       	ld	r21, Y
    1cda:	ce 58       	subi	r28, 0x8E	; 142
    1cdc:	d0 40       	sbci	r29, 0x00	; 0
    1cde:	5f 93       	push	r21
    1ce0:	c3 57       	subi	r28, 0x73	; 115
    1ce2:	df 4f       	sbci	r29, 0xFF	; 255
    1ce4:	48 81       	ld	r20, Y
    1ce6:	cd 58       	subi	r28, 0x8D	; 141
    1ce8:	d0 40       	sbci	r29, 0x00	; 0
    1cea:	4f 93       	push	r20
    1cec:	0e 94 a4 13 	call	0x2748	; 0x2748 <snprintf>
    1cf0:	0f b6       	in	r0, 0x3f	; 63
    1cf2:	f8 94       	cli
    1cf4:	de bf       	out	0x3e, r29	; 62
    1cf6:	0f be       	out	0x3f, r0	; 63
    1cf8:	cd bf       	out	0x3d, r28	; 61
    1cfa:	c0 57       	subi	r28, 0x70	; 112
    1cfc:	df 4f       	sbci	r29, 0xFF	; 255
    1cfe:	0f b6       	in	r0, 0x3f	; 63
    1d00:	f8 94       	cli
    1d02:	de bf       	out	0x3e, r29	; 62
    1d04:	0f be       	out	0x3f, r0	; 63
    1d06:	cd bf       	out	0x3d, r28	; 61
    1d08:	df 91       	pop	r29
    1d0a:	cf 91       	pop	r28
    1d0c:	08 95       	ret

00001d0e <dht22>:
    1d0e:	8f 92       	push	r8
    1d10:	9f 92       	push	r9
    1d12:	af 92       	push	r10
    1d14:	bf 92       	push	r11
    1d16:	cf 92       	push	r12
    1d18:	df 92       	push	r13
    1d1a:	ef 92       	push	r14
    1d1c:	ff 92       	push	r15
    1d1e:	0f 93       	push	r16
    1d20:	1f 93       	push	r17
    1d22:	cf 93       	push	r28
    1d24:	df 93       	push	r29
    1d26:	00 d0       	rcall	.+0      	; 0x1d28 <dht22+0x1a>
    1d28:	00 d0       	rcall	.+0      	; 0x1d2a <dht22+0x1c>
    1d2a:	1f 92       	push	r1
    1d2c:	cd b7       	in	r28, 0x3d	; 61
    1d2e:	de b7       	in	r29, 0x3e	; 62
    1d30:	6c 01       	movw	r12, r24
    1d32:	fe 01       	movw	r30, r28
    1d34:	31 96       	adiw	r30, 0x01	; 1
    1d36:	85 e0       	ldi	r24, 0x05	; 5
    1d38:	df 01       	movw	r26, r30
    1d3a:	1d 92       	st	X+, r1
    1d3c:	8a 95       	dec	r24
    1d3e:	e9 f7       	brne	.-6      	; 0x1d3a <dht22+0x2c>
    1d40:	56 9a       	sbi	0x0a, 6	; 10
    1d42:	5e 9a       	sbi	0x0b, 6	; 11
    1d44:	bf ef       	ldi	r27, 0xFF	; 255
    1d46:	21 ee       	ldi	r18, 0xE1	; 225
    1d48:	34 e0       	ldi	r19, 0x04	; 4
    1d4a:	b1 50       	subi	r27, 0x01	; 1
    1d4c:	20 40       	sbci	r18, 0x00	; 0
    1d4e:	30 40       	sbci	r19, 0x00	; 0
    1d50:	e1 f7       	brne	.-8      	; 0x1d4a <dht22+0x3c>
    1d52:	00 c0       	rjmp	.+0      	; 0x1d54 <dht22+0x46>
    1d54:	00 00       	nop
    1d56:	5e 98       	cbi	0x0b, 6	; 11
    1d58:	8f ec       	ldi	r24, 0xCF	; 207
    1d5a:	97 e0       	ldi	r25, 0x07	; 7
    1d5c:	01 97       	sbiw	r24, 0x01	; 1
    1d5e:	f1 f7       	brne	.-4      	; 0x1d5c <dht22+0x4e>
    1d60:	00 c0       	rjmp	.+0      	; 0x1d62 <dht22+0x54>
    1d62:	00 00       	nop
    1d64:	5e 9a       	sbi	0x0b, 6	; 11
    1d66:	56 98       	cbi	0x0a, 6	; 10
    1d68:	95 ed       	ldi	r25, 0xD5	; 213
    1d6a:	9a 95       	dec	r25
    1d6c:	f1 f7       	brne	.-4      	; 0x1d6a <dht22+0x5c>
    1d6e:	00 00       	nop
    1d70:	89 b1       	in	r24, 0x09	; 9
    1d72:	af e3       	ldi	r26, 0x3F	; 63
    1d74:	b1 e0       	ldi	r27, 0x01	; 1
    1d76:	11 97       	sbiw	r26, 0x01	; 1
    1d78:	f1 f7       	brne	.-4      	; 0x1d76 <dht22+0x68>
    1d7a:	00 c0       	rjmp	.+0      	; 0x1d7c <dht22+0x6e>
    1d7c:	00 00       	nop
    1d7e:	89 b1       	in	r24, 0x09	; 9
    1d80:	8f e3       	ldi	r24, 0x3F	; 63
    1d82:	91 e0       	ldi	r25, 0x01	; 1
    1d84:	01 97       	sbiw	r24, 0x01	; 1
    1d86:	f1 f7       	brne	.-4      	; 0x1d84 <dht22+0x76>
    1d88:	00 c0       	rjmp	.+0      	; 0x1d8a <dht22+0x7c>
    1d8a:	00 00       	nop
    1d8c:	8f 01       	movw	r16, r30
    1d8e:	7e 01       	movw	r14, r28
    1d90:	96 e0       	ldi	r25, 0x06	; 6
    1d92:	e9 0e       	add	r14, r25
    1d94:	f1 1c       	adc	r15, r1
    1d96:	a1 e0       	ldi	r26, 0x01	; 1
    1d98:	b0 e0       	ldi	r27, 0x00	; 0
    1d9a:	27 e0       	ldi	r18, 0x07	; 7
    1d9c:	30 e0       	ldi	r19, 0x00	; 0
    1d9e:	90 e0       	ldi	r25, 0x00	; 0
    1da0:	4e 9b       	sbis	0x09, 6	; 9
    1da2:	fe cf       	rjmp	.-4      	; 0x1da0 <dht22+0x92>
    1da4:	e0 ea       	ldi	r30, 0xA0	; 160
    1da6:	ea 95       	dec	r30
    1da8:	f1 f7       	brne	.-4      	; 0x1da6 <dht22+0x98>
    1daa:	4e 9b       	sbis	0x09, 6	; 9
    1dac:	07 c0       	rjmp	.+14     	; 0x1dbc <dht22+0xae>
    1dae:	fd 01       	movw	r30, r26
    1db0:	02 2e       	mov	r0, r18
    1db2:	01 c0       	rjmp	.+2      	; 0x1db6 <dht22+0xa8>
    1db4:	ee 0f       	add	r30, r30
    1db6:	0a 94       	dec	r0
    1db8:	ea f7       	brpl	.-6      	; 0x1db4 <dht22+0xa6>
    1dba:	9e 2b       	or	r25, r30
    1dbc:	4e 99       	sbic	0x09, 6	; 9
    1dbe:	fe cf       	rjmp	.-4      	; 0x1dbc <dht22+0xae>
    1dc0:	21 50       	subi	r18, 0x01	; 1
    1dc2:	31 09       	sbc	r19, r1
    1dc4:	68 f7       	brcc	.-38     	; 0x1da0 <dht22+0x92>
    1dc6:	f8 01       	movw	r30, r16
    1dc8:	91 93       	st	Z+, r25
    1dca:	8f 01       	movw	r16, r30
    1dcc:	ee 15       	cp	r30, r14
    1dce:	ff 05       	cpc	r31, r15
    1dd0:	21 f7       	brne	.-56     	; 0x1d9a <dht22+0x8c>
    1dd2:	56 9a       	sbi	0x0a, 6	; 10
    1dd4:	5e 9a       	sbi	0x0b, 6	; 11
    1dd6:	ff ef       	ldi	r31, 0xFF	; 255
    1dd8:	21 ee       	ldi	r18, 0xE1	; 225
    1dda:	34 e0       	ldi	r19, 0x04	; 4
    1ddc:	f1 50       	subi	r31, 0x01	; 1
    1dde:	20 40       	sbci	r18, 0x00	; 0
    1de0:	30 40       	sbci	r19, 0x00	; 0
    1de2:	e1 f7       	brne	.-8      	; 0x1ddc <dht22+0xce>
    1de4:	00 c0       	rjmp	.+0      	; 0x1de6 <dht22+0xd8>
    1de6:	00 00       	nop
    1de8:	39 81       	ldd	r19, Y+1	; 0x01
    1dea:	0a 81       	ldd	r16, Y+2	; 0x02
    1dec:	2b 81       	ldd	r18, Y+3	; 0x03
    1dee:	9c 81       	ldd	r25, Y+4	; 0x04
    1df0:	80 2f       	mov	r24, r16
    1df2:	83 0f       	add	r24, r19
    1df4:	82 0f       	add	r24, r18
    1df6:	89 0f       	add	r24, r25
    1df8:	ed 81       	ldd	r30, Y+5	; 0x05
    1dfa:	8e 17       	cp	r24, r30
    1dfc:	91 f0       	breq	.+36     	; 0x1e22 <dht22+0x114>
    1dfe:	0f 90       	pop	r0
    1e00:	0f 90       	pop	r0
    1e02:	0f 90       	pop	r0
    1e04:	0f 90       	pop	r0
    1e06:	0f 90       	pop	r0
    1e08:	df 91       	pop	r29
    1e0a:	cf 91       	pop	r28
    1e0c:	1f 91       	pop	r17
    1e0e:	0f 91       	pop	r16
    1e10:	ff 90       	pop	r15
    1e12:	ef 90       	pop	r14
    1e14:	df 90       	pop	r13
    1e16:	cf 90       	pop	r12
    1e18:	bf 90       	pop	r11
    1e1a:	af 90       	pop	r10
    1e1c:	9f 90       	pop	r9
    1e1e:	8f 90       	pop	r8
    1e20:	08 95       	ret
    1e22:	7a 01       	movw	r14, r20
    1e24:	5b 01       	movw	r10, r22
    1e26:	46 01       	movw	r8, r12
    1e28:	10 e0       	ldi	r17, 0x00	; 0
    1e2a:	13 2b       	or	r17, r19
    1e2c:	89 2f       	mov	r24, r25
    1e2e:	90 e0       	ldi	r25, 0x00	; 0
    1e30:	6c 01       	movw	r12, r24
    1e32:	d2 2a       	or	r13, r18
    1e34:	d7 fc       	sbrc	r13, 7
    1e36:	3a c0       	rjmp	.+116    	; 0x1eac <dht22+0x19e>
    1e38:	b6 01       	movw	r22, r12
    1e3a:	80 e0       	ldi	r24, 0x00	; 0
    1e3c:	90 e0       	ldi	r25, 0x00	; 0
    1e3e:	0e 94 8c 12 	call	0x2518	; 0x2518 <__floatunsisf>
    1e42:	20 e0       	ldi	r18, 0x00	; 0
    1e44:	30 e0       	ldi	r19, 0x00	; 0
    1e46:	40 e2       	ldi	r20, 0x20	; 32
    1e48:	51 e4       	ldi	r21, 0x41	; 65
    1e4a:	0e 94 e4 11 	call	0x23c8	; 0x23c8 <__divsf3>
    1e4e:	0e 94 56 12 	call	0x24ac	; 0x24ac <__fixsfsi>
    1e52:	d4 01       	movw	r26, r8
    1e54:	6c 93       	st	X, r22
    1e56:	96 01       	movw	r18, r12
    1e58:	ad ec       	ldi	r26, 0xCD	; 205
    1e5a:	bc ec       	ldi	r27, 0xCC	; 204
    1e5c:	0e 94 55 11 	call	0x22aa	; 0x22aa <__umulhisi3>
    1e60:	96 95       	lsr	r25
    1e62:	87 95       	ror	r24
    1e64:	96 95       	lsr	r25
    1e66:	87 95       	ror	r24
    1e68:	96 95       	lsr	r25
    1e6a:	87 95       	ror	r24
    1e6c:	9c 01       	movw	r18, r24
    1e6e:	22 0f       	add	r18, r18
    1e70:	33 1f       	adc	r19, r19
    1e72:	88 0f       	add	r24, r24
    1e74:	99 1f       	adc	r25, r25
    1e76:	88 0f       	add	r24, r24
    1e78:	99 1f       	adc	r25, r25
    1e7a:	88 0f       	add	r24, r24
    1e7c:	99 1f       	adc	r25, r25
    1e7e:	82 0f       	add	r24, r18
    1e80:	93 1f       	adc	r25, r19
    1e82:	f6 01       	movw	r30, r12
    1e84:	e8 1b       	sub	r30, r24
    1e86:	f9 0b       	sbc	r31, r25
    1e88:	d5 01       	movw	r26, r10
    1e8a:	ec 93       	st	X, r30
    1e8c:	b8 01       	movw	r22, r16
    1e8e:	80 e0       	ldi	r24, 0x00	; 0
    1e90:	90 e0       	ldi	r25, 0x00	; 0
    1e92:	0e 94 8c 12 	call	0x2518	; 0x2518 <__floatunsisf>
    1e96:	20 e0       	ldi	r18, 0x00	; 0
    1e98:	30 e0       	ldi	r19, 0x00	; 0
    1e9a:	40 e2       	ldi	r20, 0x20	; 32
    1e9c:	51 e4       	ldi	r21, 0x41	; 65
    1e9e:	0e 94 e4 11 	call	0x23c8	; 0x23c8 <__divsf3>
    1ea2:	0e 94 5d 12 	call	0x24ba	; 0x24ba <__fixunssfsi>
    1ea6:	f7 01       	movw	r30, r14
    1ea8:	60 83       	st	Z, r22
    1eaa:	a9 cf       	rjmp	.-174    	; 0x1dfe <dht22+0xf0>
    1eac:	e8 94       	clt
    1eae:	d7 f8       	bld	r13, 7
    1eb0:	b6 01       	movw	r22, r12
    1eb2:	80 e0       	ldi	r24, 0x00	; 0
    1eb4:	90 e0       	ldi	r25, 0x00	; 0
    1eb6:	0e 94 8c 12 	call	0x2518	; 0x2518 <__floatunsisf>
    1eba:	20 e0       	ldi	r18, 0x00	; 0
    1ebc:	30 e0       	ldi	r19, 0x00	; 0
    1ebe:	40 e2       	ldi	r20, 0x20	; 32
    1ec0:	51 e4       	ldi	r21, 0x41	; 65
    1ec2:	0e 94 e4 11 	call	0x23c8	; 0x23c8 <__divsf3>
    1ec6:	90 58       	subi	r25, 0x80	; 128
    1ec8:	0e 94 56 12 	call	0x24ac	; 0x24ac <__fixsfsi>
    1ecc:	d4 01       	movw	r26, r8
    1ece:	6c 93       	st	X, r22
    1ed0:	96 01       	movw	r18, r12
    1ed2:	ad ec       	ldi	r26, 0xCD	; 205
    1ed4:	bc ec       	ldi	r27, 0xCC	; 204
    1ed6:	0e 94 55 11 	call	0x22aa	; 0x22aa <__umulhisi3>
    1eda:	96 95       	lsr	r25
    1edc:	87 95       	ror	r24
    1ede:	96 95       	lsr	r25
    1ee0:	87 95       	ror	r24
    1ee2:	96 95       	lsr	r25
    1ee4:	87 95       	ror	r24
    1ee6:	9c 01       	movw	r18, r24
    1ee8:	22 0f       	add	r18, r18
    1eea:	33 1f       	adc	r19, r19
    1eec:	88 0f       	add	r24, r24
    1eee:	99 1f       	adc	r25, r25
    1ef0:	88 0f       	add	r24, r24
    1ef2:	99 1f       	adc	r25, r25
    1ef4:	88 0f       	add	r24, r24
    1ef6:	99 1f       	adc	r25, r25
    1ef8:	82 0f       	add	r24, r18
    1efa:	93 1f       	adc	r25, r19
    1efc:	b6 01       	movw	r22, r12
    1efe:	68 1b       	sub	r22, r24
    1f00:	79 0b       	sbc	r23, r25
    1f02:	80 e0       	ldi	r24, 0x00	; 0
    1f04:	90 e0       	ldi	r25, 0x00	; 0
    1f06:	0e 94 8c 12 	call	0x2518	; 0x2518 <__floatunsisf>
    1f0a:	90 58       	subi	r25, 0x80	; 128
    1f0c:	0e 94 5d 12 	call	0x24ba	; 0x24ba <__fixunssfsi>
    1f10:	f5 01       	movw	r30, r10
    1f12:	60 83       	st	Z, r22
    1f14:	bb cf       	rjmp	.-138    	; 0x1e8c <dht22+0x17e>

00001f16 <sys_uart_getch>:
    1f16:	90 91 6c 02 	lds	r25, 0x026C
    1f1a:	80 91 6b 02 	lds	r24, 0x026B
    1f1e:	98 17       	cp	r25, r24
    1f20:	91 f0       	breq	.+36     	; 0x1f46 <sys_uart_getch+0x30>
    1f22:	e0 91 6b 02 	lds	r30, 0x026B
    1f26:	81 e0       	ldi	r24, 0x01	; 1
    1f28:	8e 0f       	add	r24, r30
    1f2a:	80 93 6b 02 	sts	0x026B, r24
    1f2e:	f0 e0       	ldi	r31, 0x00	; 0
    1f30:	e8 59       	subi	r30, 0x98	; 152
    1f32:	fd 4f       	sbci	r31, 0xFD	; 253
    1f34:	86 81       	ldd	r24, Z+6	; 0x06
    1f36:	90 91 6b 02 	lds	r25, 0x026B
    1f3a:	90 31       	cpi	r25, 0x10	; 16
    1f3c:	10 f0       	brcs	.+4      	; 0x1f42 <sys_uart_getch+0x2c>
    1f3e:	10 92 6b 02 	sts	0x026B, r1
    1f42:	90 e0       	ldi	r25, 0x00	; 0
    1f44:	08 95       	ret
    1f46:	8e ef       	ldi	r24, 0xFE	; 254
    1f48:	9f ef       	ldi	r25, 0xFF	; 255
    1f4a:	08 95       	ret

00001f4c <sys_uart_putch>:
    1f4c:	90 91 c0 00 	lds	r25, 0x00C0
    1f50:	95 ff       	sbrs	r25, 5
    1f52:	fc cf       	rjmp	.-8      	; 0x1f4c <sys_uart_putch>
    1f54:	80 93 c6 00 	sts	0x00C6, r24
    1f58:	08 2e       	mov	r0, r24
    1f5a:	00 0c       	add	r0, r0
    1f5c:	99 0b       	sbc	r25, r25
    1f5e:	08 95       	ret

00001f60 <sys_init>:
    1f60:	86 e1       	ldi	r24, 0x16	; 22
    1f62:	e8 e6       	ldi	r30, 0x68	; 104
    1f64:	f2 e0       	ldi	r31, 0x02	; 2
    1f66:	df 01       	movw	r26, r30
    1f68:	1d 92       	st	X+, r1
    1f6a:	8a 95       	dec	r24
    1f6c:	e9 f7       	brne	.-6      	; 0x1f68 <sys_init+0x8>
    1f6e:	bf ef       	ldi	r27, 0xFF	; 255
    1f70:	22 e5       	ldi	r18, 0x52	; 82
    1f72:	87 e0       	ldi	r24, 0x07	; 7
    1f74:	b1 50       	subi	r27, 0x01	; 1
    1f76:	20 40       	sbci	r18, 0x00	; 0
    1f78:	80 40       	sbci	r24, 0x00	; 0
    1f7a:	e1 f7       	brne	.-8      	; 0x1f74 <sys_init+0x14>
    1f7c:	00 c0       	rjmp	.+0      	; 0x1f7e <sys_init+0x1e>
    1f7e:	00 00       	nop
    1f80:	82 e2       	ldi	r24, 0x22	; 34
    1f82:	80 93 c4 00 	sts	0x00C4, r24
    1f86:	10 92 c5 00 	sts	0x00C5, r1
    1f8a:	82 e0       	ldi	r24, 0x02	; 2
    1f8c:	80 93 c0 00 	sts	0x00C0, r24
    1f90:	86 e0       	ldi	r24, 0x06	; 6
    1f92:	80 93 c2 00 	sts	0x00C2, r24
    1f96:	88 e9       	ldi	r24, 0x98	; 152
    1f98:	80 93 c1 00 	sts	0x00C1, r24
    1f9c:	80 e2       	ldi	r24, 0x20	; 32
    1f9e:	84 b9       	out	0x04, r24	; 4
    1fa0:	15 b8       	out	0x05, r1	; 5
    1fa2:	ee e7       	ldi	r30, 0x7E	; 126
    1fa4:	f2 e0       	ldi	r31, 0x02	; 2
    1fa6:	8e e0       	ldi	r24, 0x0E	; 14
    1fa8:	91 e0       	ldi	r25, 0x01	; 1
    1faa:	93 83       	std	Z+3, r25	; 0x03
    1fac:	82 83       	std	Z+2, r24	; 0x02
    1fae:	80 e0       	ldi	r24, 0x00	; 0
    1fb0:	91 e0       	ldi	r25, 0x01	; 1
    1fb2:	91 83       	std	Z+1, r25	; 0x01
    1fb4:	80 83       	st	Z, r24
    1fb6:	08 95       	ret

00001fb8 <sys_main>:
    1fb8:	08 95       	ret

00001fba <sys_inc8BitCnt>:
    1fba:	8f 3f       	cpi	r24, 0xFF	; 255
    1fbc:	11 f0       	breq	.+4      	; 0x1fc2 <sys_inc8BitCnt+0x8>
    1fbe:	8f 5f       	subi	r24, 0xFF	; 255
    1fc0:	08 95       	ret
    1fc2:	8f ef       	ldi	r24, 0xFF	; 255
    1fc4:	08 95       	ret

00001fc6 <sys_inc16BitCnt>:
    1fc6:	8f 3f       	cpi	r24, 0xFF	; 255
    1fc8:	2f ef       	ldi	r18, 0xFF	; 255
    1fca:	92 07       	cpc	r25, r18
    1fcc:	11 f0       	breq	.+4      	; 0x1fd2 <sys_inc16BitCnt+0xc>
    1fce:	01 96       	adiw	r24, 0x01	; 1
    1fd0:	08 95       	ret
    1fd2:	8f ef       	ldi	r24, 0xFF	; 255
    1fd4:	9f ef       	ldi	r25, 0xFF	; 255
    1fd6:	08 95       	ret

00001fd8 <sys_inc8BitCntAndReturn>:
    1fd8:	fc 01       	movw	r30, r24
    1fda:	86 2f       	mov	r24, r22
    1fdc:	90 81       	ld	r25, Z
    1fde:	9f 3f       	cpi	r25, 0xFF	; 255
    1fe0:	09 f0       	breq	.+2      	; 0x1fe4 <sys_inc8BitCntAndReturn+0xc>
    1fe2:	9f 5f       	subi	r25, 0xFF	; 255
    1fe4:	90 83       	st	Z, r25
    1fe6:	08 95       	ret

00001fe8 <sys_inc16BitCntAndReturn>:
    1fe8:	fc 01       	movw	r30, r24
    1fea:	86 2f       	mov	r24, r22
    1fec:	20 81       	ld	r18, Z
    1fee:	31 81       	ldd	r19, Z+1	; 0x01
    1ff0:	2f 3f       	cpi	r18, 0xFF	; 255
    1ff2:	9f ef       	ldi	r25, 0xFF	; 255
    1ff4:	39 07       	cpc	r19, r25
    1ff6:	11 f0       	breq	.+4      	; 0x1ffc <sys_inc16BitCntAndReturn+0x14>
    1ff8:	2f 5f       	subi	r18, 0xFF	; 255
    1ffa:	3f 4f       	sbci	r19, 0xFF	; 255
    1ffc:	31 83       	std	Z+1, r19	; 0x01
    1ffe:	20 83       	st	Z, r18
    2000:	08 95       	ret

00002002 <sys_sei>:
    2002:	80 91 68 02 	lds	r24, 0x0268
    2006:	87 ff       	sbrs	r24, 7
    2008:	08 95       	ret
    200a:	78 94       	sei
    200c:	08 95       	ret

0000200e <sys_cli>:
    200e:	8f b7       	in	r24, 0x3f	; 63
    2010:	e8 e6       	ldi	r30, 0x68	; 104
    2012:	f2 e0       	ldi	r31, 0x02	; 2
    2014:	90 81       	ld	r25, Z
    2016:	80 78       	andi	r24, 0x80	; 128
    2018:	89 2b       	or	r24, r25
    201a:	80 83       	st	Z, r24
    201c:	f8 94       	cli
    201e:	08 95       	ret

00002020 <sys_newline>:
    2020:	86 ec       	ldi	r24, 0xC6	; 198
    2022:	91 e0       	ldi	r25, 0x01	; 1
    2024:	9f 93       	push	r25
    2026:	8f 93       	push	r24
    2028:	0e 94 8e 13 	call	0x271c	; 0x271c <printf>
    202c:	0f 90       	pop	r0
    202e:	0f 90       	pop	r0
    2030:	08 95       	ret

00002032 <sys_uart_available>:
    2032:	90 91 6c 02 	lds	r25, 0x026C
    2036:	80 91 6b 02 	lds	r24, 0x026B
    203a:	98 17       	cp	r25, r24
    203c:	38 f4       	brcc	.+14     	; 0x204c <sys_uart_available+0x1a>
    203e:	80 91 6c 02 	lds	r24, 0x026C
    2042:	90 91 6b 02 	lds	r25, 0x026B
    2046:	80 5f       	subi	r24, 0xF0	; 240
    2048:	89 1b       	sub	r24, r25
    204a:	08 95       	ret
    204c:	80 91 6c 02 	lds	r24, 0x026C
    2050:	90 91 6b 02 	lds	r25, 0x026B
    2054:	89 1b       	sub	r24, r25
    2056:	08 95       	ret

00002058 <sys_uart_getBufferByte>:
    2058:	cf 93       	push	r28
    205a:	c8 2f       	mov	r28, r24
    205c:	9f b7       	in	r25, 0x3f	; 63
    205e:	20 91 68 02 	lds	r18, 0x0268
    2062:	90 78       	andi	r25, 0x80	; 128
    2064:	92 2b       	or	r25, r18
    2066:	90 93 68 02 	sts	0x0268, r25
    206a:	f8 94       	cli
    206c:	0e 94 19 10 	call	0x2032	; 0x2032 <sys_uart_available>
    2070:	c8 17       	cp	r28, r24
    2072:	a0 f4       	brcc	.+40     	; 0x209c <sys_uart_getBufferByte+0x44>
    2074:	90 91 6b 02 	lds	r25, 0x026B
    2078:	ec 2f       	mov	r30, r28
    207a:	e9 0f       	add	r30, r25
    207c:	e0 31       	cpi	r30, 0x10	; 16
    207e:	60 f4       	brcc	.+24     	; 0x2098 <sys_uart_getBufferByte+0x40>
    2080:	f0 e0       	ldi	r31, 0x00	; 0
    2082:	e8 59       	subi	r30, 0x98	; 152
    2084:	fd 4f       	sbci	r31, 0xFD	; 253
    2086:	86 81       	ldd	r24, Z+6	; 0x06
    2088:	90 e0       	ldi	r25, 0x00	; 0
    208a:	20 91 68 02 	lds	r18, 0x0268
    208e:	27 ff       	sbrs	r18, 7
    2090:	01 c0       	rjmp	.+2      	; 0x2094 <sys_uart_getBufferByte+0x3c>
    2092:	78 94       	sei
    2094:	cf 91       	pop	r28
    2096:	08 95       	ret
    2098:	e0 51       	subi	r30, 0x10	; 16
    209a:	f2 cf       	rjmp	.-28     	; 0x2080 <sys_uart_getBufferByte+0x28>
    209c:	8f ef       	ldi	r24, 0xFF	; 255
    209e:	9f ef       	ldi	r25, 0xFF	; 255
    20a0:	f4 cf       	rjmp	.-24     	; 0x208a <sys_uart_getBufferByte+0x32>

000020a2 <sys_uart_flush>:
    20a2:	8f b7       	in	r24, 0x3f	; 63
    20a4:	90 91 68 02 	lds	r25, 0x0268
    20a8:	80 78       	andi	r24, 0x80	; 128
    20aa:	89 2b       	or	r24, r25
    20ac:	80 93 68 02 	sts	0x0268, r24
    20b0:	f8 94       	cli
    20b2:	80 91 c0 00 	lds	r24, 0x00C0
    20b6:	87 ff       	sbrs	r24, 7
    20b8:	08 c0       	rjmp	.+16     	; 0x20ca <sys_uart_flush+0x28>
    20ba:	80 91 c6 00 	lds	r24, 0x00C6
    20be:	80 93 6d 02 	sts	0x026D, r24
    20c2:	80 91 c0 00 	lds	r24, 0x00C0
    20c6:	87 fd       	sbrc	r24, 7
    20c8:	f8 cf       	rjmp	.-16     	; 0x20ba <sys_uart_flush+0x18>
    20ca:	10 92 6b 02 	sts	0x026B, r1
    20ce:	10 92 6c 02 	sts	0x026C, r1
    20d2:	10 92 6d 02 	sts	0x026D, r1
    20d6:	80 91 68 02 	lds	r24, 0x0268
    20da:	87 ff       	sbrs	r24, 7
    20dc:	08 95       	ret
    20de:	78 94       	sei
    20e0:	08 95       	ret

000020e2 <sys_setEvent>:
    20e2:	2f b7       	in	r18, 0x3f	; 63
    20e4:	30 91 68 02 	lds	r19, 0x0268
    20e8:	20 78       	andi	r18, 0x80	; 128
    20ea:	23 2b       	or	r18, r19
    20ec:	20 93 68 02 	sts	0x0268, r18
    20f0:	f8 94       	cli
    20f2:	20 91 6a 02 	lds	r18, 0x026A
    20f6:	28 23       	and	r18, r24
    20f8:	31 e0       	ldi	r19, 0x01	; 1
    20fa:	09 f4       	brne	.+2      	; 0x20fe <sys_setEvent+0x1c>
    20fc:	30 e0       	ldi	r19, 0x00	; 0
    20fe:	90 91 6a 02 	lds	r25, 0x026A
    2102:	98 2b       	or	r25, r24
    2104:	90 93 6a 02 	sts	0x026A, r25
    2108:	80 91 68 02 	lds	r24, 0x0268
    210c:	87 ff       	sbrs	r24, 7
    210e:	01 c0       	rjmp	.+2      	; 0x2112 <sys_setEvent+0x30>
    2110:	78 94       	sei
    2112:	83 2f       	mov	r24, r19
    2114:	08 95       	ret

00002116 <sys_clearEvent>:
    2116:	98 2f       	mov	r25, r24
    2118:	8f b7       	in	r24, 0x3f	; 63
    211a:	20 91 68 02 	lds	r18, 0x0268
    211e:	80 78       	andi	r24, 0x80	; 128
    2120:	82 2b       	or	r24, r18
    2122:	80 93 68 02 	sts	0x0268, r24
    2126:	f8 94       	cli
    2128:	20 91 6a 02 	lds	r18, 0x026A
    212c:	29 23       	and	r18, r25
    212e:	81 e0       	ldi	r24, 0x01	; 1
    2130:	09 f4       	brne	.+2      	; 0x2134 <sys_clearEvent+0x1e>
    2132:	80 e0       	ldi	r24, 0x00	; 0
    2134:	20 91 6a 02 	lds	r18, 0x026A
    2138:	90 95       	com	r25
    213a:	92 23       	and	r25, r18
    213c:	90 93 6a 02 	sts	0x026A, r25
    2140:	90 91 68 02 	lds	r25, 0x0268
    2144:	97 ff       	sbrs	r25, 7
    2146:	08 95       	ret
    2148:	78 94       	sei
    214a:	08 95       	ret

0000214c <sys_isEventPending>:
    214c:	90 91 6a 02 	lds	r25, 0x026A
    2150:	98 23       	and	r25, r24
    2152:	81 e0       	ldi	r24, 0x01	; 1
    2154:	09 f4       	brne	.+2      	; 0x2158 <sys_isEventPending+0xc>
    2156:	80 e0       	ldi	r24, 0x00	; 0
    2158:	08 95       	ret

0000215a <sys_setLed>:
    215a:	81 11       	cpse	r24, r1
    215c:	02 c0       	rjmp	.+4      	; 0x2162 <sys_setLed+0x8>
    215e:	2d 98       	cbi	0x05, 5	; 5
    2160:	08 95       	ret
    2162:	2d 9a       	sbi	0x05, 5	; 5
    2164:	08 95       	ret

00002166 <sys_toggleLed>:
    2166:	95 b1       	in	r25, 0x05	; 5
    2168:	80 e2       	ldi	r24, 0x20	; 32
    216a:	89 27       	eor	r24, r25
    216c:	85 b9       	out	0x05, r24	; 5
    216e:	08 95       	ret

00002170 <__vector_18>:
    2170:	1f 92       	push	r1
    2172:	0f 92       	push	r0
    2174:	0f b6       	in	r0, 0x3f	; 63
    2176:	0f 92       	push	r0
    2178:	11 24       	eor	r1, r1
    217a:	2f 93       	push	r18
    217c:	3f 93       	push	r19
    217e:	4f 93       	push	r20
    2180:	5f 93       	push	r21
    2182:	6f 93       	push	r22
    2184:	7f 93       	push	r23
    2186:	8f 93       	push	r24
    2188:	9f 93       	push	r25
    218a:	af 93       	push	r26
    218c:	bf 93       	push	r27
    218e:	ef 93       	push	r30
    2190:	ff 93       	push	r31
    2192:	80 91 c6 00 	lds	r24, 0x00C6
    2196:	82 35       	cpi	r24, 0x52	; 82
    2198:	21 f4       	brne	.+8      	; 0x21a2 <__vector_18+0x32>
    219a:	90 91 ca 01 	lds	r25, 0x01CA
    219e:	90 34       	cpi	r25, 0x40	; 64
    21a0:	a9 f0       	breq	.+42     	; 0x21cc <__vector_18+0x5c>
    21a2:	80 93 ca 01 	sts	0x01CA, r24
    21a6:	0e 94 38 08 	call	0x1070	; 0x1070 <app_uart_isr>
    21aa:	ff 91       	pop	r31
    21ac:	ef 91       	pop	r30
    21ae:	bf 91       	pop	r27
    21b0:	af 91       	pop	r26
    21b2:	9f 91       	pop	r25
    21b4:	8f 91       	pop	r24
    21b6:	7f 91       	pop	r23
    21b8:	6f 91       	pop	r22
    21ba:	5f 91       	pop	r21
    21bc:	4f 91       	pop	r20
    21be:	3f 91       	pop	r19
    21c0:	2f 91       	pop	r18
    21c2:	0f 90       	pop	r0
    21c4:	0f be       	out	0x3f, r0	; 63
    21c6:	0f 90       	pop	r0
    21c8:	1f 90       	pop	r1
    21ca:	18 95       	reti
    21cc:	98 e0       	ldi	r25, 0x08	; 8
    21ce:	88 e1       	ldi	r24, 0x18	; 24
    21d0:	0f b6       	in	r0, 0x3f	; 63
    21d2:	f8 94       	cli
    21d4:	a8 95       	wdr
    21d6:	80 93 60 00 	sts	0x0060, r24
    21da:	0f be       	out	0x3f, r0	; 63
    21dc:	90 93 60 00 	sts	0x0060, r25
    21e0:	a8 95       	wdr
    21e2:	ff cf       	rjmp	.-2      	; 0x21e2 <__vector_18+0x72>

000021e4 <main>:
    21e4:	0e 94 b0 0f 	call	0x1f60	; 0x1f60 <sys_init>
    21e8:	0e 94 5d 00 	call	0xba	; 0xba <app_init>
    21ec:	0e 94 10 10 	call	0x2020	; 0x2020 <sys_newline>
    21f0:	78 94       	sei
    21f2:	0e 94 dc 0f 	call	0x1fb8	; 0x1fb8 <sys_main>
    21f6:	0e 94 67 06 	call	0xcce	; 0xcce <app_main>
    21fa:	fb cf       	rjmp	.-10     	; 0x21f2 <main+0xe>

000021fc <__mulsi3>:
    21fc:	db 01       	movw	r26, r22
    21fe:	8f 93       	push	r24
    2200:	9f 93       	push	r25
    2202:	0e 94 64 11 	call	0x22c8	; 0x22c8 <__muluhisi3>
    2206:	bf 91       	pop	r27
    2208:	af 91       	pop	r26
    220a:	a2 9f       	mul	r26, r18
    220c:	80 0d       	add	r24, r0
    220e:	91 1d       	adc	r25, r1
    2210:	a3 9f       	mul	r26, r19
    2212:	90 0d       	add	r25, r0
    2214:	b2 9f       	mul	r27, r18
    2216:	90 0d       	add	r25, r0
    2218:	11 24       	eor	r1, r1
    221a:	08 95       	ret

0000221c <__udivmodsi4>:
    221c:	a1 e2       	ldi	r26, 0x21	; 33
    221e:	1a 2e       	mov	r1, r26
    2220:	aa 1b       	sub	r26, r26
    2222:	bb 1b       	sub	r27, r27
    2224:	fd 01       	movw	r30, r26
    2226:	0d c0       	rjmp	.+26     	; 0x2242 <__udivmodsi4_ep>

00002228 <__udivmodsi4_loop>:
    2228:	aa 1f       	adc	r26, r26
    222a:	bb 1f       	adc	r27, r27
    222c:	ee 1f       	adc	r30, r30
    222e:	ff 1f       	adc	r31, r31
    2230:	a2 17       	cp	r26, r18
    2232:	b3 07       	cpc	r27, r19
    2234:	e4 07       	cpc	r30, r20
    2236:	f5 07       	cpc	r31, r21
    2238:	20 f0       	brcs	.+8      	; 0x2242 <__udivmodsi4_ep>
    223a:	a2 1b       	sub	r26, r18
    223c:	b3 0b       	sbc	r27, r19
    223e:	e4 0b       	sbc	r30, r20
    2240:	f5 0b       	sbc	r31, r21

00002242 <__udivmodsi4_ep>:
    2242:	66 1f       	adc	r22, r22
    2244:	77 1f       	adc	r23, r23
    2246:	88 1f       	adc	r24, r24
    2248:	99 1f       	adc	r25, r25
    224a:	1a 94       	dec	r1
    224c:	69 f7       	brne	.-38     	; 0x2228 <__udivmodsi4_loop>
    224e:	60 95       	com	r22
    2250:	70 95       	com	r23
    2252:	80 95       	com	r24
    2254:	90 95       	com	r25
    2256:	9b 01       	movw	r18, r22
    2258:	ac 01       	movw	r20, r24
    225a:	bd 01       	movw	r22, r26
    225c:	cf 01       	movw	r24, r30
    225e:	08 95       	ret

00002260 <__divmodsi4>:
    2260:	05 2e       	mov	r0, r21
    2262:	97 fb       	bst	r25, 7
    2264:	1e f4       	brtc	.+6      	; 0x226c <__divmodsi4+0xc>
    2266:	00 94       	com	r0
    2268:	0e 94 47 11 	call	0x228e	; 0x228e <__negsi2>
    226c:	57 fd       	sbrc	r21, 7
    226e:	07 d0       	rcall	.+14     	; 0x227e <__divmodsi4_neg2>
    2270:	0e 94 0e 11 	call	0x221c	; 0x221c <__udivmodsi4>
    2274:	07 fc       	sbrc	r0, 7
    2276:	03 d0       	rcall	.+6      	; 0x227e <__divmodsi4_neg2>
    2278:	4e f4       	brtc	.+18     	; 0x228c <__divmodsi4_exit>
    227a:	0c 94 47 11 	jmp	0x228e	; 0x228e <__negsi2>

0000227e <__divmodsi4_neg2>:
    227e:	50 95       	com	r21
    2280:	40 95       	com	r20
    2282:	30 95       	com	r19
    2284:	21 95       	neg	r18
    2286:	3f 4f       	sbci	r19, 0xFF	; 255
    2288:	4f 4f       	sbci	r20, 0xFF	; 255
    228a:	5f 4f       	sbci	r21, 0xFF	; 255

0000228c <__divmodsi4_exit>:
    228c:	08 95       	ret

0000228e <__negsi2>:
    228e:	90 95       	com	r25
    2290:	80 95       	com	r24
    2292:	70 95       	com	r23
    2294:	61 95       	neg	r22
    2296:	7f 4f       	sbci	r23, 0xFF	; 255
    2298:	8f 4f       	sbci	r24, 0xFF	; 255
    229a:	9f 4f       	sbci	r25, 0xFF	; 255
    229c:	08 95       	ret

0000229e <__tablejump2__>:
    229e:	ee 0f       	add	r30, r30
    22a0:	ff 1f       	adc	r31, r31
    22a2:	05 90       	lpm	r0, Z+
    22a4:	f4 91       	lpm	r31, Z
    22a6:	e0 2d       	mov	r30, r0
    22a8:	09 94       	ijmp

000022aa <__umulhisi3>:
    22aa:	a2 9f       	mul	r26, r18
    22ac:	b0 01       	movw	r22, r0
    22ae:	b3 9f       	mul	r27, r19
    22b0:	c0 01       	movw	r24, r0
    22b2:	a3 9f       	mul	r26, r19
    22b4:	70 0d       	add	r23, r0
    22b6:	81 1d       	adc	r24, r1
    22b8:	11 24       	eor	r1, r1
    22ba:	91 1d       	adc	r25, r1
    22bc:	b2 9f       	mul	r27, r18
    22be:	70 0d       	add	r23, r0
    22c0:	81 1d       	adc	r24, r1
    22c2:	11 24       	eor	r1, r1
    22c4:	91 1d       	adc	r25, r1
    22c6:	08 95       	ret

000022c8 <__muluhisi3>:
    22c8:	0e 94 55 11 	call	0x22aa	; 0x22aa <__umulhisi3>
    22cc:	a5 9f       	mul	r26, r21
    22ce:	90 0d       	add	r25, r0
    22d0:	b4 9f       	mul	r27, r20
    22d2:	90 0d       	add	r25, r0
    22d4:	a4 9f       	mul	r26, r20
    22d6:	80 0d       	add	r24, r0
    22d8:	91 1d       	adc	r25, r1
    22da:	11 24       	eor	r1, r1
    22dc:	08 95       	ret

000022de <__mulshisi3>:
    22de:	b7 ff       	sbrs	r27, 7
    22e0:	0c 94 64 11 	jmp	0x22c8	; 0x22c8 <__muluhisi3>

000022e4 <__mulohisi3>:
    22e4:	0e 94 64 11 	call	0x22c8	; 0x22c8 <__muluhisi3>
    22e8:	82 1b       	sub	r24, r18
    22ea:	93 0b       	sbc	r25, r19
    22ec:	08 95       	ret

000022ee <__subsf3>:
    22ee:	50 58       	subi	r21, 0x80	; 128

000022f0 <__addsf3>:
    22f0:	bb 27       	eor	r27, r27
    22f2:	aa 27       	eor	r26, r26
    22f4:	0e 94 8f 11 	call	0x231e	; 0x231e <__addsf3x>
    22f8:	0c 94 e0 12 	jmp	0x25c0	; 0x25c0 <__fp_round>
    22fc:	0e 94 d2 12 	call	0x25a4	; 0x25a4 <__fp_pscA>
    2300:	38 f0       	brcs	.+14     	; 0x2310 <__addsf3+0x20>
    2302:	0e 94 d9 12 	call	0x25b2	; 0x25b2 <__fp_pscB>
    2306:	20 f0       	brcs	.+8      	; 0x2310 <__addsf3+0x20>
    2308:	39 f4       	brne	.+14     	; 0x2318 <__addsf3+0x28>
    230a:	9f 3f       	cpi	r25, 0xFF	; 255
    230c:	19 f4       	brne	.+6      	; 0x2314 <__addsf3+0x24>
    230e:	26 f4       	brtc	.+8      	; 0x2318 <__addsf3+0x28>
    2310:	0c 94 cf 12 	jmp	0x259e	; 0x259e <__fp_nan>
    2314:	0e f4       	brtc	.+2      	; 0x2318 <__addsf3+0x28>
    2316:	e0 95       	com	r30
    2318:	e7 fb       	bst	r30, 7
    231a:	0c 94 c9 12 	jmp	0x2592	; 0x2592 <__fp_inf>

0000231e <__addsf3x>:
    231e:	e9 2f       	mov	r30, r25
    2320:	0e 94 f1 12 	call	0x25e2	; 0x25e2 <__fp_split3>
    2324:	58 f3       	brcs	.-42     	; 0x22fc <__addsf3+0xc>
    2326:	ba 17       	cp	r27, r26
    2328:	62 07       	cpc	r22, r18
    232a:	73 07       	cpc	r23, r19
    232c:	84 07       	cpc	r24, r20
    232e:	95 07       	cpc	r25, r21
    2330:	20 f0       	brcs	.+8      	; 0x233a <__addsf3x+0x1c>
    2332:	79 f4       	brne	.+30     	; 0x2352 <__addsf3x+0x34>
    2334:	a6 f5       	brtc	.+104    	; 0x239e <__addsf3x+0x80>
    2336:	0c 94 13 13 	jmp	0x2626	; 0x2626 <__fp_zero>
    233a:	0e f4       	brtc	.+2      	; 0x233e <__addsf3x+0x20>
    233c:	e0 95       	com	r30
    233e:	0b 2e       	mov	r0, r27
    2340:	ba 2f       	mov	r27, r26
    2342:	a0 2d       	mov	r26, r0
    2344:	0b 01       	movw	r0, r22
    2346:	b9 01       	movw	r22, r18
    2348:	90 01       	movw	r18, r0
    234a:	0c 01       	movw	r0, r24
    234c:	ca 01       	movw	r24, r20
    234e:	a0 01       	movw	r20, r0
    2350:	11 24       	eor	r1, r1
    2352:	ff 27       	eor	r31, r31
    2354:	59 1b       	sub	r21, r25
    2356:	99 f0       	breq	.+38     	; 0x237e <__addsf3x+0x60>
    2358:	59 3f       	cpi	r21, 0xF9	; 249
    235a:	50 f4       	brcc	.+20     	; 0x2370 <__addsf3x+0x52>
    235c:	50 3e       	cpi	r21, 0xE0	; 224
    235e:	68 f1       	brcs	.+90     	; 0x23ba <__addsf3x+0x9c>
    2360:	1a 16       	cp	r1, r26
    2362:	f0 40       	sbci	r31, 0x00	; 0
    2364:	a2 2f       	mov	r26, r18
    2366:	23 2f       	mov	r18, r19
    2368:	34 2f       	mov	r19, r20
    236a:	44 27       	eor	r20, r20
    236c:	58 5f       	subi	r21, 0xF8	; 248
    236e:	f3 cf       	rjmp	.-26     	; 0x2356 <__addsf3x+0x38>
    2370:	46 95       	lsr	r20
    2372:	37 95       	ror	r19
    2374:	27 95       	ror	r18
    2376:	a7 95       	ror	r26
    2378:	f0 40       	sbci	r31, 0x00	; 0
    237a:	53 95       	inc	r21
    237c:	c9 f7       	brne	.-14     	; 0x2370 <__addsf3x+0x52>
    237e:	7e f4       	brtc	.+30     	; 0x239e <__addsf3x+0x80>
    2380:	1f 16       	cp	r1, r31
    2382:	ba 0b       	sbc	r27, r26
    2384:	62 0b       	sbc	r22, r18
    2386:	73 0b       	sbc	r23, r19
    2388:	84 0b       	sbc	r24, r20
    238a:	ba f0       	brmi	.+46     	; 0x23ba <__addsf3x+0x9c>
    238c:	91 50       	subi	r25, 0x01	; 1
    238e:	a1 f0       	breq	.+40     	; 0x23b8 <__addsf3x+0x9a>
    2390:	ff 0f       	add	r31, r31
    2392:	bb 1f       	adc	r27, r27
    2394:	66 1f       	adc	r22, r22
    2396:	77 1f       	adc	r23, r23
    2398:	88 1f       	adc	r24, r24
    239a:	c2 f7       	brpl	.-16     	; 0x238c <__addsf3x+0x6e>
    239c:	0e c0       	rjmp	.+28     	; 0x23ba <__addsf3x+0x9c>
    239e:	ba 0f       	add	r27, r26
    23a0:	62 1f       	adc	r22, r18
    23a2:	73 1f       	adc	r23, r19
    23a4:	84 1f       	adc	r24, r20
    23a6:	48 f4       	brcc	.+18     	; 0x23ba <__addsf3x+0x9c>
    23a8:	87 95       	ror	r24
    23aa:	77 95       	ror	r23
    23ac:	67 95       	ror	r22
    23ae:	b7 95       	ror	r27
    23b0:	f7 95       	ror	r31
    23b2:	9e 3f       	cpi	r25, 0xFE	; 254
    23b4:	08 f0       	brcs	.+2      	; 0x23b8 <__addsf3x+0x9a>
    23b6:	b0 cf       	rjmp	.-160    	; 0x2318 <__addsf3+0x28>
    23b8:	93 95       	inc	r25
    23ba:	88 0f       	add	r24, r24
    23bc:	08 f0       	brcs	.+2      	; 0x23c0 <__addsf3x+0xa2>
    23be:	99 27       	eor	r25, r25
    23c0:	ee 0f       	add	r30, r30
    23c2:	97 95       	ror	r25
    23c4:	87 95       	ror	r24
    23c6:	08 95       	ret

000023c8 <__divsf3>:
    23c8:	0e 94 f8 11 	call	0x23f0	; 0x23f0 <__divsf3x>
    23cc:	0c 94 e0 12 	jmp	0x25c0	; 0x25c0 <__fp_round>
    23d0:	0e 94 d9 12 	call	0x25b2	; 0x25b2 <__fp_pscB>
    23d4:	58 f0       	brcs	.+22     	; 0x23ec <__divsf3+0x24>
    23d6:	0e 94 d2 12 	call	0x25a4	; 0x25a4 <__fp_pscA>
    23da:	40 f0       	brcs	.+16     	; 0x23ec <__divsf3+0x24>
    23dc:	29 f4       	brne	.+10     	; 0x23e8 <__divsf3+0x20>
    23de:	5f 3f       	cpi	r21, 0xFF	; 255
    23e0:	29 f0       	breq	.+10     	; 0x23ec <__divsf3+0x24>
    23e2:	0c 94 c9 12 	jmp	0x2592	; 0x2592 <__fp_inf>
    23e6:	51 11       	cpse	r21, r1
    23e8:	0c 94 14 13 	jmp	0x2628	; 0x2628 <__fp_szero>
    23ec:	0c 94 cf 12 	jmp	0x259e	; 0x259e <__fp_nan>

000023f0 <__divsf3x>:
    23f0:	0e 94 f1 12 	call	0x25e2	; 0x25e2 <__fp_split3>
    23f4:	68 f3       	brcs	.-38     	; 0x23d0 <__divsf3+0x8>

000023f6 <__divsf3_pse>:
    23f6:	99 23       	and	r25, r25
    23f8:	b1 f3       	breq	.-20     	; 0x23e6 <__divsf3+0x1e>
    23fa:	55 23       	and	r21, r21
    23fc:	91 f3       	breq	.-28     	; 0x23e2 <__divsf3+0x1a>
    23fe:	95 1b       	sub	r25, r21
    2400:	55 0b       	sbc	r21, r21
    2402:	bb 27       	eor	r27, r27
    2404:	aa 27       	eor	r26, r26
    2406:	62 17       	cp	r22, r18
    2408:	73 07       	cpc	r23, r19
    240a:	84 07       	cpc	r24, r20
    240c:	38 f0       	brcs	.+14     	; 0x241c <__divsf3_pse+0x26>
    240e:	9f 5f       	subi	r25, 0xFF	; 255
    2410:	5f 4f       	sbci	r21, 0xFF	; 255
    2412:	22 0f       	add	r18, r18
    2414:	33 1f       	adc	r19, r19
    2416:	44 1f       	adc	r20, r20
    2418:	aa 1f       	adc	r26, r26
    241a:	a9 f3       	breq	.-22     	; 0x2406 <__divsf3_pse+0x10>
    241c:	35 d0       	rcall	.+106    	; 0x2488 <__divsf3_pse+0x92>
    241e:	0e 2e       	mov	r0, r30
    2420:	3a f0       	brmi	.+14     	; 0x2430 <__divsf3_pse+0x3a>
    2422:	e0 e8       	ldi	r30, 0x80	; 128
    2424:	32 d0       	rcall	.+100    	; 0x248a <__divsf3_pse+0x94>
    2426:	91 50       	subi	r25, 0x01	; 1
    2428:	50 40       	sbci	r21, 0x00	; 0
    242a:	e6 95       	lsr	r30
    242c:	00 1c       	adc	r0, r0
    242e:	ca f7       	brpl	.-14     	; 0x2422 <__divsf3_pse+0x2c>
    2430:	2b d0       	rcall	.+86     	; 0x2488 <__divsf3_pse+0x92>
    2432:	fe 2f       	mov	r31, r30
    2434:	29 d0       	rcall	.+82     	; 0x2488 <__divsf3_pse+0x92>
    2436:	66 0f       	add	r22, r22
    2438:	77 1f       	adc	r23, r23
    243a:	88 1f       	adc	r24, r24
    243c:	bb 1f       	adc	r27, r27
    243e:	26 17       	cp	r18, r22
    2440:	37 07       	cpc	r19, r23
    2442:	48 07       	cpc	r20, r24
    2444:	ab 07       	cpc	r26, r27
    2446:	b0 e8       	ldi	r27, 0x80	; 128
    2448:	09 f0       	breq	.+2      	; 0x244c <__divsf3_pse+0x56>
    244a:	bb 0b       	sbc	r27, r27
    244c:	80 2d       	mov	r24, r0
    244e:	bf 01       	movw	r22, r30
    2450:	ff 27       	eor	r31, r31
    2452:	93 58       	subi	r25, 0x83	; 131
    2454:	5f 4f       	sbci	r21, 0xFF	; 255
    2456:	3a f0       	brmi	.+14     	; 0x2466 <__divsf3_pse+0x70>
    2458:	9e 3f       	cpi	r25, 0xFE	; 254
    245a:	51 05       	cpc	r21, r1
    245c:	78 f0       	brcs	.+30     	; 0x247c <__divsf3_pse+0x86>
    245e:	0c 94 c9 12 	jmp	0x2592	; 0x2592 <__fp_inf>
    2462:	0c 94 14 13 	jmp	0x2628	; 0x2628 <__fp_szero>
    2466:	5f 3f       	cpi	r21, 0xFF	; 255
    2468:	e4 f3       	brlt	.-8      	; 0x2462 <__divsf3_pse+0x6c>
    246a:	98 3e       	cpi	r25, 0xE8	; 232
    246c:	d4 f3       	brlt	.-12     	; 0x2462 <__divsf3_pse+0x6c>
    246e:	86 95       	lsr	r24
    2470:	77 95       	ror	r23
    2472:	67 95       	ror	r22
    2474:	b7 95       	ror	r27
    2476:	f7 95       	ror	r31
    2478:	9f 5f       	subi	r25, 0xFF	; 255
    247a:	c9 f7       	brne	.-14     	; 0x246e <__divsf3_pse+0x78>
    247c:	88 0f       	add	r24, r24
    247e:	91 1d       	adc	r25, r1
    2480:	96 95       	lsr	r25
    2482:	87 95       	ror	r24
    2484:	97 f9       	bld	r25, 7
    2486:	08 95       	ret
    2488:	e1 e0       	ldi	r30, 0x01	; 1
    248a:	66 0f       	add	r22, r22
    248c:	77 1f       	adc	r23, r23
    248e:	88 1f       	adc	r24, r24
    2490:	bb 1f       	adc	r27, r27
    2492:	62 17       	cp	r22, r18
    2494:	73 07       	cpc	r23, r19
    2496:	84 07       	cpc	r24, r20
    2498:	ba 07       	cpc	r27, r26
    249a:	20 f0       	brcs	.+8      	; 0x24a4 <__divsf3_pse+0xae>
    249c:	62 1b       	sub	r22, r18
    249e:	73 0b       	sbc	r23, r19
    24a0:	84 0b       	sbc	r24, r20
    24a2:	ba 0b       	sbc	r27, r26
    24a4:	ee 1f       	adc	r30, r30
    24a6:	88 f7       	brcc	.-30     	; 0x248a <__divsf3_pse+0x94>
    24a8:	e0 95       	com	r30
    24aa:	08 95       	ret

000024ac <__fixsfsi>:
    24ac:	0e 94 5d 12 	call	0x24ba	; 0x24ba <__fixunssfsi>
    24b0:	68 94       	set
    24b2:	b1 11       	cpse	r27, r1
    24b4:	0c 94 14 13 	jmp	0x2628	; 0x2628 <__fp_szero>
    24b8:	08 95       	ret

000024ba <__fixunssfsi>:
    24ba:	0e 94 f9 12 	call	0x25f2	; 0x25f2 <__fp_splitA>
    24be:	88 f0       	brcs	.+34     	; 0x24e2 <__fixunssfsi+0x28>
    24c0:	9f 57       	subi	r25, 0x7F	; 127
    24c2:	98 f0       	brcs	.+38     	; 0x24ea <__fixunssfsi+0x30>
    24c4:	b9 2f       	mov	r27, r25
    24c6:	99 27       	eor	r25, r25
    24c8:	b7 51       	subi	r27, 0x17	; 23
    24ca:	b0 f0       	brcs	.+44     	; 0x24f8 <__fixunssfsi+0x3e>
    24cc:	e1 f0       	breq	.+56     	; 0x2506 <__fixunssfsi+0x4c>
    24ce:	66 0f       	add	r22, r22
    24d0:	77 1f       	adc	r23, r23
    24d2:	88 1f       	adc	r24, r24
    24d4:	99 1f       	adc	r25, r25
    24d6:	1a f0       	brmi	.+6      	; 0x24de <__fixunssfsi+0x24>
    24d8:	ba 95       	dec	r27
    24da:	c9 f7       	brne	.-14     	; 0x24ce <__fixunssfsi+0x14>
    24dc:	14 c0       	rjmp	.+40     	; 0x2506 <__fixunssfsi+0x4c>
    24de:	b1 30       	cpi	r27, 0x01	; 1
    24e0:	91 f0       	breq	.+36     	; 0x2506 <__fixunssfsi+0x4c>
    24e2:	0e 94 13 13 	call	0x2626	; 0x2626 <__fp_zero>
    24e6:	b1 e0       	ldi	r27, 0x01	; 1
    24e8:	08 95       	ret
    24ea:	0c 94 13 13 	jmp	0x2626	; 0x2626 <__fp_zero>
    24ee:	67 2f       	mov	r22, r23
    24f0:	78 2f       	mov	r23, r24
    24f2:	88 27       	eor	r24, r24
    24f4:	b8 5f       	subi	r27, 0xF8	; 248
    24f6:	39 f0       	breq	.+14     	; 0x2506 <__fixunssfsi+0x4c>
    24f8:	b9 3f       	cpi	r27, 0xF9	; 249
    24fa:	cc f3       	brlt	.-14     	; 0x24ee <__fixunssfsi+0x34>
    24fc:	86 95       	lsr	r24
    24fe:	77 95       	ror	r23
    2500:	67 95       	ror	r22
    2502:	b3 95       	inc	r27
    2504:	d9 f7       	brne	.-10     	; 0x24fc <__fixunssfsi+0x42>
    2506:	3e f4       	brtc	.+14     	; 0x2516 <__fixunssfsi+0x5c>
    2508:	90 95       	com	r25
    250a:	80 95       	com	r24
    250c:	70 95       	com	r23
    250e:	61 95       	neg	r22
    2510:	7f 4f       	sbci	r23, 0xFF	; 255
    2512:	8f 4f       	sbci	r24, 0xFF	; 255
    2514:	9f 4f       	sbci	r25, 0xFF	; 255
    2516:	08 95       	ret

00002518 <__floatunsisf>:
    2518:	e8 94       	clt
    251a:	09 c0       	rjmp	.+18     	; 0x252e <__floatsisf+0x12>

0000251c <__floatsisf>:
    251c:	97 fb       	bst	r25, 7
    251e:	3e f4       	brtc	.+14     	; 0x252e <__floatsisf+0x12>
    2520:	90 95       	com	r25
    2522:	80 95       	com	r24
    2524:	70 95       	com	r23
    2526:	61 95       	neg	r22
    2528:	7f 4f       	sbci	r23, 0xFF	; 255
    252a:	8f 4f       	sbci	r24, 0xFF	; 255
    252c:	9f 4f       	sbci	r25, 0xFF	; 255
    252e:	99 23       	and	r25, r25
    2530:	a9 f0       	breq	.+42     	; 0x255c <__floatsisf+0x40>
    2532:	f9 2f       	mov	r31, r25
    2534:	96 e9       	ldi	r25, 0x96	; 150
    2536:	bb 27       	eor	r27, r27
    2538:	93 95       	inc	r25
    253a:	f6 95       	lsr	r31
    253c:	87 95       	ror	r24
    253e:	77 95       	ror	r23
    2540:	67 95       	ror	r22
    2542:	b7 95       	ror	r27
    2544:	f1 11       	cpse	r31, r1
    2546:	f8 cf       	rjmp	.-16     	; 0x2538 <__floatsisf+0x1c>
    2548:	fa f4       	brpl	.+62     	; 0x2588 <__floatsisf+0x6c>
    254a:	bb 0f       	add	r27, r27
    254c:	11 f4       	brne	.+4      	; 0x2552 <__floatsisf+0x36>
    254e:	60 ff       	sbrs	r22, 0
    2550:	1b c0       	rjmp	.+54     	; 0x2588 <__floatsisf+0x6c>
    2552:	6f 5f       	subi	r22, 0xFF	; 255
    2554:	7f 4f       	sbci	r23, 0xFF	; 255
    2556:	8f 4f       	sbci	r24, 0xFF	; 255
    2558:	9f 4f       	sbci	r25, 0xFF	; 255
    255a:	16 c0       	rjmp	.+44     	; 0x2588 <__floatsisf+0x6c>
    255c:	88 23       	and	r24, r24
    255e:	11 f0       	breq	.+4      	; 0x2564 <__floatsisf+0x48>
    2560:	96 e9       	ldi	r25, 0x96	; 150
    2562:	11 c0       	rjmp	.+34     	; 0x2586 <__floatsisf+0x6a>
    2564:	77 23       	and	r23, r23
    2566:	21 f0       	breq	.+8      	; 0x2570 <__floatsisf+0x54>
    2568:	9e e8       	ldi	r25, 0x8E	; 142
    256a:	87 2f       	mov	r24, r23
    256c:	76 2f       	mov	r23, r22
    256e:	05 c0       	rjmp	.+10     	; 0x257a <__floatsisf+0x5e>
    2570:	66 23       	and	r22, r22
    2572:	71 f0       	breq	.+28     	; 0x2590 <__floatsisf+0x74>
    2574:	96 e8       	ldi	r25, 0x86	; 134
    2576:	86 2f       	mov	r24, r22
    2578:	70 e0       	ldi	r23, 0x00	; 0
    257a:	60 e0       	ldi	r22, 0x00	; 0
    257c:	2a f0       	brmi	.+10     	; 0x2588 <__floatsisf+0x6c>
    257e:	9a 95       	dec	r25
    2580:	66 0f       	add	r22, r22
    2582:	77 1f       	adc	r23, r23
    2584:	88 1f       	adc	r24, r24
    2586:	da f7       	brpl	.-10     	; 0x257e <__floatsisf+0x62>
    2588:	88 0f       	add	r24, r24
    258a:	96 95       	lsr	r25
    258c:	87 95       	ror	r24
    258e:	97 f9       	bld	r25, 7
    2590:	08 95       	ret

00002592 <__fp_inf>:
    2592:	97 f9       	bld	r25, 7
    2594:	9f 67       	ori	r25, 0x7F	; 127
    2596:	80 e8       	ldi	r24, 0x80	; 128
    2598:	70 e0       	ldi	r23, 0x00	; 0
    259a:	60 e0       	ldi	r22, 0x00	; 0
    259c:	08 95       	ret

0000259e <__fp_nan>:
    259e:	9f ef       	ldi	r25, 0xFF	; 255
    25a0:	80 ec       	ldi	r24, 0xC0	; 192
    25a2:	08 95       	ret

000025a4 <__fp_pscA>:
    25a4:	00 24       	eor	r0, r0
    25a6:	0a 94       	dec	r0
    25a8:	16 16       	cp	r1, r22
    25aa:	17 06       	cpc	r1, r23
    25ac:	18 06       	cpc	r1, r24
    25ae:	09 06       	cpc	r0, r25
    25b0:	08 95       	ret

000025b2 <__fp_pscB>:
    25b2:	00 24       	eor	r0, r0
    25b4:	0a 94       	dec	r0
    25b6:	12 16       	cp	r1, r18
    25b8:	13 06       	cpc	r1, r19
    25ba:	14 06       	cpc	r1, r20
    25bc:	05 06       	cpc	r0, r21
    25be:	08 95       	ret

000025c0 <__fp_round>:
    25c0:	09 2e       	mov	r0, r25
    25c2:	03 94       	inc	r0
    25c4:	00 0c       	add	r0, r0
    25c6:	11 f4       	brne	.+4      	; 0x25cc <__fp_round+0xc>
    25c8:	88 23       	and	r24, r24
    25ca:	52 f0       	brmi	.+20     	; 0x25e0 <__fp_round+0x20>
    25cc:	bb 0f       	add	r27, r27
    25ce:	40 f4       	brcc	.+16     	; 0x25e0 <__fp_round+0x20>
    25d0:	bf 2b       	or	r27, r31
    25d2:	11 f4       	brne	.+4      	; 0x25d8 <__fp_round+0x18>
    25d4:	60 ff       	sbrs	r22, 0
    25d6:	04 c0       	rjmp	.+8      	; 0x25e0 <__fp_round+0x20>
    25d8:	6f 5f       	subi	r22, 0xFF	; 255
    25da:	7f 4f       	sbci	r23, 0xFF	; 255
    25dc:	8f 4f       	sbci	r24, 0xFF	; 255
    25de:	9f 4f       	sbci	r25, 0xFF	; 255
    25e0:	08 95       	ret

000025e2 <__fp_split3>:
    25e2:	57 fd       	sbrc	r21, 7
    25e4:	90 58       	subi	r25, 0x80	; 128
    25e6:	44 0f       	add	r20, r20
    25e8:	55 1f       	adc	r21, r21
    25ea:	59 f0       	breq	.+22     	; 0x2602 <__fp_splitA+0x10>
    25ec:	5f 3f       	cpi	r21, 0xFF	; 255
    25ee:	71 f0       	breq	.+28     	; 0x260c <__fp_splitA+0x1a>
    25f0:	47 95       	ror	r20

000025f2 <__fp_splitA>:
    25f2:	88 0f       	add	r24, r24
    25f4:	97 fb       	bst	r25, 7
    25f6:	99 1f       	adc	r25, r25
    25f8:	61 f0       	breq	.+24     	; 0x2612 <__fp_splitA+0x20>
    25fa:	9f 3f       	cpi	r25, 0xFF	; 255
    25fc:	79 f0       	breq	.+30     	; 0x261c <__fp_splitA+0x2a>
    25fe:	87 95       	ror	r24
    2600:	08 95       	ret
    2602:	12 16       	cp	r1, r18
    2604:	13 06       	cpc	r1, r19
    2606:	14 06       	cpc	r1, r20
    2608:	55 1f       	adc	r21, r21
    260a:	f2 cf       	rjmp	.-28     	; 0x25f0 <__fp_split3+0xe>
    260c:	46 95       	lsr	r20
    260e:	f1 df       	rcall	.-30     	; 0x25f2 <__fp_splitA>
    2610:	08 c0       	rjmp	.+16     	; 0x2622 <__fp_splitA+0x30>
    2612:	16 16       	cp	r1, r22
    2614:	17 06       	cpc	r1, r23
    2616:	18 06       	cpc	r1, r24
    2618:	99 1f       	adc	r25, r25
    261a:	f1 cf       	rjmp	.-30     	; 0x25fe <__fp_splitA+0xc>
    261c:	86 95       	lsr	r24
    261e:	71 05       	cpc	r23, r1
    2620:	61 05       	cpc	r22, r1
    2622:	08 94       	sec
    2624:	08 95       	ret

00002626 <__fp_zero>:
    2626:	e8 94       	clt

00002628 <__fp_szero>:
    2628:	bb 27       	eor	r27, r27
    262a:	66 27       	eor	r22, r22
    262c:	77 27       	eor	r23, r23
    262e:	cb 01       	movw	r24, r22
    2630:	97 f9       	bld	r25, 7
    2632:	08 95       	ret

00002634 <__mulsf3>:
    2634:	0e 94 2d 13 	call	0x265a	; 0x265a <__mulsf3x>
    2638:	0c 94 e0 12 	jmp	0x25c0	; 0x25c0 <__fp_round>
    263c:	0e 94 d2 12 	call	0x25a4	; 0x25a4 <__fp_pscA>
    2640:	38 f0       	brcs	.+14     	; 0x2650 <__mulsf3+0x1c>
    2642:	0e 94 d9 12 	call	0x25b2	; 0x25b2 <__fp_pscB>
    2646:	20 f0       	brcs	.+8      	; 0x2650 <__mulsf3+0x1c>
    2648:	95 23       	and	r25, r21
    264a:	11 f0       	breq	.+4      	; 0x2650 <__mulsf3+0x1c>
    264c:	0c 94 c9 12 	jmp	0x2592	; 0x2592 <__fp_inf>
    2650:	0c 94 cf 12 	jmp	0x259e	; 0x259e <__fp_nan>
    2654:	11 24       	eor	r1, r1
    2656:	0c 94 14 13 	jmp	0x2628	; 0x2628 <__fp_szero>

0000265a <__mulsf3x>:
    265a:	0e 94 f1 12 	call	0x25e2	; 0x25e2 <__fp_split3>
    265e:	70 f3       	brcs	.-36     	; 0x263c <__mulsf3+0x8>

00002660 <__mulsf3_pse>:
    2660:	95 9f       	mul	r25, r21
    2662:	c1 f3       	breq	.-16     	; 0x2654 <__mulsf3+0x20>
    2664:	95 0f       	add	r25, r21
    2666:	50 e0       	ldi	r21, 0x00	; 0
    2668:	55 1f       	adc	r21, r21
    266a:	62 9f       	mul	r22, r18
    266c:	f0 01       	movw	r30, r0
    266e:	72 9f       	mul	r23, r18
    2670:	bb 27       	eor	r27, r27
    2672:	f0 0d       	add	r31, r0
    2674:	b1 1d       	adc	r27, r1
    2676:	63 9f       	mul	r22, r19
    2678:	aa 27       	eor	r26, r26
    267a:	f0 0d       	add	r31, r0
    267c:	b1 1d       	adc	r27, r1
    267e:	aa 1f       	adc	r26, r26
    2680:	64 9f       	mul	r22, r20
    2682:	66 27       	eor	r22, r22
    2684:	b0 0d       	add	r27, r0
    2686:	a1 1d       	adc	r26, r1
    2688:	66 1f       	adc	r22, r22
    268a:	82 9f       	mul	r24, r18
    268c:	22 27       	eor	r18, r18
    268e:	b0 0d       	add	r27, r0
    2690:	a1 1d       	adc	r26, r1
    2692:	62 1f       	adc	r22, r18
    2694:	73 9f       	mul	r23, r19
    2696:	b0 0d       	add	r27, r0
    2698:	a1 1d       	adc	r26, r1
    269a:	62 1f       	adc	r22, r18
    269c:	83 9f       	mul	r24, r19
    269e:	a0 0d       	add	r26, r0
    26a0:	61 1d       	adc	r22, r1
    26a2:	22 1f       	adc	r18, r18
    26a4:	74 9f       	mul	r23, r20
    26a6:	33 27       	eor	r19, r19
    26a8:	a0 0d       	add	r26, r0
    26aa:	61 1d       	adc	r22, r1
    26ac:	23 1f       	adc	r18, r19
    26ae:	84 9f       	mul	r24, r20
    26b0:	60 0d       	add	r22, r0
    26b2:	21 1d       	adc	r18, r1
    26b4:	82 2f       	mov	r24, r18
    26b6:	76 2f       	mov	r23, r22
    26b8:	6a 2f       	mov	r22, r26
    26ba:	11 24       	eor	r1, r1
    26bc:	9f 57       	subi	r25, 0x7F	; 127
    26be:	50 40       	sbci	r21, 0x00	; 0
    26c0:	9a f0       	brmi	.+38     	; 0x26e8 <__mulsf3_pse+0x88>
    26c2:	f1 f0       	breq	.+60     	; 0x2700 <__mulsf3_pse+0xa0>
    26c4:	88 23       	and	r24, r24
    26c6:	4a f0       	brmi	.+18     	; 0x26da <__mulsf3_pse+0x7a>
    26c8:	ee 0f       	add	r30, r30
    26ca:	ff 1f       	adc	r31, r31
    26cc:	bb 1f       	adc	r27, r27
    26ce:	66 1f       	adc	r22, r22
    26d0:	77 1f       	adc	r23, r23
    26d2:	88 1f       	adc	r24, r24
    26d4:	91 50       	subi	r25, 0x01	; 1
    26d6:	50 40       	sbci	r21, 0x00	; 0
    26d8:	a9 f7       	brne	.-22     	; 0x26c4 <__mulsf3_pse+0x64>
    26da:	9e 3f       	cpi	r25, 0xFE	; 254
    26dc:	51 05       	cpc	r21, r1
    26de:	80 f0       	brcs	.+32     	; 0x2700 <__mulsf3_pse+0xa0>
    26e0:	0c 94 c9 12 	jmp	0x2592	; 0x2592 <__fp_inf>
    26e4:	0c 94 14 13 	jmp	0x2628	; 0x2628 <__fp_szero>
    26e8:	5f 3f       	cpi	r21, 0xFF	; 255
    26ea:	e4 f3       	brlt	.-8      	; 0x26e4 <__mulsf3_pse+0x84>
    26ec:	98 3e       	cpi	r25, 0xE8	; 232
    26ee:	d4 f3       	brlt	.-12     	; 0x26e4 <__mulsf3_pse+0x84>
    26f0:	86 95       	lsr	r24
    26f2:	77 95       	ror	r23
    26f4:	67 95       	ror	r22
    26f6:	b7 95       	ror	r27
    26f8:	f7 95       	ror	r31
    26fa:	e7 95       	ror	r30
    26fc:	9f 5f       	subi	r25, 0xFF	; 255
    26fe:	c1 f7       	brne	.-16     	; 0x26f0 <__mulsf3_pse+0x90>
    2700:	fe 2b       	or	r31, r30
    2702:	88 0f       	add	r24, r24
    2704:	91 1d       	adc	r25, r1
    2706:	96 95       	lsr	r25
    2708:	87 95       	ror	r24
    270a:	97 f9       	bld	r25, 7
    270c:	08 95       	ret

0000270e <memset>:
    270e:	dc 01       	movw	r26, r24
    2710:	01 c0       	rjmp	.+2      	; 0x2714 <memset+0x6>
    2712:	6d 93       	st	X+, r22
    2714:	41 50       	subi	r20, 0x01	; 1
    2716:	50 40       	sbci	r21, 0x00	; 0
    2718:	e0 f7       	brcc	.-8      	; 0x2712 <memset+0x4>
    271a:	08 95       	ret

0000271c <printf>:
    271c:	a0 e0       	ldi	r26, 0x00	; 0
    271e:	b0 e0       	ldi	r27, 0x00	; 0
    2720:	e4 e9       	ldi	r30, 0x94	; 148
    2722:	f3 e1       	ldi	r31, 0x13	; 19
    2724:	0c 94 62 16 	jmp	0x2cc4	; 0x2cc4 <__prologue_saves__+0x20>
    2728:	ae 01       	movw	r20, r28
    272a:	4b 5f       	subi	r20, 0xFB	; 251
    272c:	5f 4f       	sbci	r21, 0xFF	; 255
    272e:	fa 01       	movw	r30, r20
    2730:	61 91       	ld	r22, Z+
    2732:	71 91       	ld	r23, Z+
    2734:	af 01       	movw	r20, r30
    2736:	80 91 80 02 	lds	r24, 0x0280
    273a:	90 91 81 02 	lds	r25, 0x0281
    273e:	0e 94 d4 13 	call	0x27a8	; 0x27a8 <vfprintf>
    2742:	e2 e0       	ldi	r30, 0x02	; 2
    2744:	0c 94 7e 16 	jmp	0x2cfc	; 0x2cfc <__epilogue_restores__+0x20>

00002748 <snprintf>:
    2748:	ae e0       	ldi	r26, 0x0E	; 14
    274a:	b0 e0       	ldi	r27, 0x00	; 0
    274c:	ea ea       	ldi	r30, 0xAA	; 170
    274e:	f3 e1       	ldi	r31, 0x13	; 19
    2750:	0c 94 60 16 	jmp	0x2cc0	; 0x2cc0 <__prologue_saves__+0x1c>
    2754:	0d 89       	ldd	r16, Y+21	; 0x15
    2756:	1e 89       	ldd	r17, Y+22	; 0x16
    2758:	8f 89       	ldd	r24, Y+23	; 0x17
    275a:	98 8d       	ldd	r25, Y+24	; 0x18
    275c:	26 e0       	ldi	r18, 0x06	; 6
    275e:	2c 83       	std	Y+4, r18	; 0x04
    2760:	1a 83       	std	Y+2, r17	; 0x02
    2762:	09 83       	std	Y+1, r16	; 0x01
    2764:	97 ff       	sbrs	r25, 7
    2766:	02 c0       	rjmp	.+4      	; 0x276c <snprintf+0x24>
    2768:	80 e0       	ldi	r24, 0x00	; 0
    276a:	90 e8       	ldi	r25, 0x80	; 128
    276c:	01 97       	sbiw	r24, 0x01	; 1
    276e:	9e 83       	std	Y+6, r25	; 0x06
    2770:	8d 83       	std	Y+5, r24	; 0x05
    2772:	ae 01       	movw	r20, r28
    2774:	45 5e       	subi	r20, 0xE5	; 229
    2776:	5f 4f       	sbci	r21, 0xFF	; 255
    2778:	69 8d       	ldd	r22, Y+25	; 0x19
    277a:	7a 8d       	ldd	r23, Y+26	; 0x1a
    277c:	ce 01       	movw	r24, r28
    277e:	01 96       	adiw	r24, 0x01	; 1
    2780:	0e 94 d4 13 	call	0x27a8	; 0x27a8 <vfprintf>
    2784:	4d 81       	ldd	r20, Y+5	; 0x05
    2786:	5e 81       	ldd	r21, Y+6	; 0x06
    2788:	57 fd       	sbrc	r21, 7
    278a:	0a c0       	rjmp	.+20     	; 0x27a0 <snprintf+0x58>
    278c:	2f 81       	ldd	r18, Y+7	; 0x07
    278e:	38 85       	ldd	r19, Y+8	; 0x08
    2790:	42 17       	cp	r20, r18
    2792:	53 07       	cpc	r21, r19
    2794:	0c f4       	brge	.+2      	; 0x2798 <snprintf+0x50>
    2796:	9a 01       	movw	r18, r20
    2798:	f8 01       	movw	r30, r16
    279a:	e2 0f       	add	r30, r18
    279c:	f3 1f       	adc	r31, r19
    279e:	10 82       	st	Z, r1
    27a0:	2e 96       	adiw	r28, 0x0e	; 14
    27a2:	e4 e0       	ldi	r30, 0x04	; 4
    27a4:	0c 94 7c 16 	jmp	0x2cf8	; 0x2cf8 <__epilogue_restores__+0x1c>

000027a8 <vfprintf>:
    27a8:	ac e0       	ldi	r26, 0x0C	; 12
    27aa:	b0 e0       	ldi	r27, 0x00	; 0
    27ac:	ea ed       	ldi	r30, 0xDA	; 218
    27ae:	f3 e1       	ldi	r31, 0x13	; 19
    27b0:	0c 94 52 16 	jmp	0x2ca4	; 0x2ca4 <__prologue_saves__>
    27b4:	7c 01       	movw	r14, r24
    27b6:	6b 01       	movw	r12, r22
    27b8:	8a 01       	movw	r16, r20
    27ba:	fc 01       	movw	r30, r24
    27bc:	17 82       	std	Z+7, r1	; 0x07
    27be:	16 82       	std	Z+6, r1	; 0x06
    27c0:	83 81       	ldd	r24, Z+3	; 0x03
    27c2:	81 ff       	sbrs	r24, 1
    27c4:	bd c1       	rjmp	.+890    	; 0x2b40 <vfprintf+0x398>
    27c6:	ce 01       	movw	r24, r28
    27c8:	01 96       	adiw	r24, 0x01	; 1
    27ca:	4c 01       	movw	r8, r24
    27cc:	f7 01       	movw	r30, r14
    27ce:	93 81       	ldd	r25, Z+3	; 0x03
    27d0:	f6 01       	movw	r30, r12
    27d2:	93 fd       	sbrc	r25, 3
    27d4:	85 91       	lpm	r24, Z+
    27d6:	93 ff       	sbrs	r25, 3
    27d8:	81 91       	ld	r24, Z+
    27da:	6f 01       	movw	r12, r30
    27dc:	88 23       	and	r24, r24
    27de:	09 f4       	brne	.+2      	; 0x27e2 <vfprintf+0x3a>
    27e0:	ab c1       	rjmp	.+854    	; 0x2b38 <vfprintf+0x390>
    27e2:	85 32       	cpi	r24, 0x25	; 37
    27e4:	39 f4       	brne	.+14     	; 0x27f4 <vfprintf+0x4c>
    27e6:	93 fd       	sbrc	r25, 3
    27e8:	85 91       	lpm	r24, Z+
    27ea:	93 ff       	sbrs	r25, 3
    27ec:	81 91       	ld	r24, Z+
    27ee:	6f 01       	movw	r12, r30
    27f0:	85 32       	cpi	r24, 0x25	; 37
    27f2:	29 f4       	brne	.+10     	; 0x27fe <vfprintf+0x56>
    27f4:	b7 01       	movw	r22, r14
    27f6:	90 e0       	ldi	r25, 0x00	; 0
    27f8:	0e 94 bc 15 	call	0x2b78	; 0x2b78 <fputc>
    27fc:	e7 cf       	rjmp	.-50     	; 0x27cc <vfprintf+0x24>
    27fe:	51 2c       	mov	r5, r1
    2800:	31 2c       	mov	r3, r1
    2802:	20 e0       	ldi	r18, 0x00	; 0
    2804:	20 32       	cpi	r18, 0x20	; 32
    2806:	a0 f4       	brcc	.+40     	; 0x2830 <vfprintf+0x88>
    2808:	8b 32       	cpi	r24, 0x2B	; 43
    280a:	69 f0       	breq	.+26     	; 0x2826 <vfprintf+0x7e>
    280c:	30 f4       	brcc	.+12     	; 0x281a <vfprintf+0x72>
    280e:	80 32       	cpi	r24, 0x20	; 32
    2810:	59 f0       	breq	.+22     	; 0x2828 <vfprintf+0x80>
    2812:	83 32       	cpi	r24, 0x23	; 35
    2814:	69 f4       	brne	.+26     	; 0x2830 <vfprintf+0x88>
    2816:	20 61       	ori	r18, 0x10	; 16
    2818:	2c c0       	rjmp	.+88     	; 0x2872 <vfprintf+0xca>
    281a:	8d 32       	cpi	r24, 0x2D	; 45
    281c:	39 f0       	breq	.+14     	; 0x282c <vfprintf+0x84>
    281e:	80 33       	cpi	r24, 0x30	; 48
    2820:	39 f4       	brne	.+14     	; 0x2830 <vfprintf+0x88>
    2822:	21 60       	ori	r18, 0x01	; 1
    2824:	26 c0       	rjmp	.+76     	; 0x2872 <vfprintf+0xca>
    2826:	22 60       	ori	r18, 0x02	; 2
    2828:	24 60       	ori	r18, 0x04	; 4
    282a:	23 c0       	rjmp	.+70     	; 0x2872 <vfprintf+0xca>
    282c:	28 60       	ori	r18, 0x08	; 8
    282e:	21 c0       	rjmp	.+66     	; 0x2872 <vfprintf+0xca>
    2830:	27 fd       	sbrc	r18, 7
    2832:	27 c0       	rjmp	.+78     	; 0x2882 <vfprintf+0xda>
    2834:	30 ed       	ldi	r19, 0xD0	; 208
    2836:	38 0f       	add	r19, r24
    2838:	3a 30       	cpi	r19, 0x0A	; 10
    283a:	78 f4       	brcc	.+30     	; 0x285a <vfprintf+0xb2>
    283c:	26 ff       	sbrs	r18, 6
    283e:	06 c0       	rjmp	.+12     	; 0x284c <vfprintf+0xa4>
    2840:	fa e0       	ldi	r31, 0x0A	; 10
    2842:	5f 9e       	mul	r5, r31
    2844:	30 0d       	add	r19, r0
    2846:	11 24       	eor	r1, r1
    2848:	53 2e       	mov	r5, r19
    284a:	13 c0       	rjmp	.+38     	; 0x2872 <vfprintf+0xca>
    284c:	8a e0       	ldi	r24, 0x0A	; 10
    284e:	38 9e       	mul	r3, r24
    2850:	30 0d       	add	r19, r0
    2852:	11 24       	eor	r1, r1
    2854:	33 2e       	mov	r3, r19
    2856:	20 62       	ori	r18, 0x20	; 32
    2858:	0c c0       	rjmp	.+24     	; 0x2872 <vfprintf+0xca>
    285a:	8e 32       	cpi	r24, 0x2E	; 46
    285c:	21 f4       	brne	.+8      	; 0x2866 <vfprintf+0xbe>
    285e:	26 fd       	sbrc	r18, 6
    2860:	6b c1       	rjmp	.+726    	; 0x2b38 <vfprintf+0x390>
    2862:	20 64       	ori	r18, 0x40	; 64
    2864:	06 c0       	rjmp	.+12     	; 0x2872 <vfprintf+0xca>
    2866:	8c 36       	cpi	r24, 0x6C	; 108
    2868:	11 f4       	brne	.+4      	; 0x286e <vfprintf+0xc6>
    286a:	20 68       	ori	r18, 0x80	; 128
    286c:	02 c0       	rjmp	.+4      	; 0x2872 <vfprintf+0xca>
    286e:	88 36       	cpi	r24, 0x68	; 104
    2870:	41 f4       	brne	.+16     	; 0x2882 <vfprintf+0xda>
    2872:	f6 01       	movw	r30, r12
    2874:	93 fd       	sbrc	r25, 3
    2876:	85 91       	lpm	r24, Z+
    2878:	93 ff       	sbrs	r25, 3
    287a:	81 91       	ld	r24, Z+
    287c:	6f 01       	movw	r12, r30
    287e:	81 11       	cpse	r24, r1
    2880:	c1 cf       	rjmp	.-126    	; 0x2804 <vfprintf+0x5c>
    2882:	98 2f       	mov	r25, r24
    2884:	9f 7d       	andi	r25, 0xDF	; 223
    2886:	95 54       	subi	r25, 0x45	; 69
    2888:	93 30       	cpi	r25, 0x03	; 3
    288a:	28 f4       	brcc	.+10     	; 0x2896 <vfprintf+0xee>
    288c:	0c 5f       	subi	r16, 0xFC	; 252
    288e:	1f 4f       	sbci	r17, 0xFF	; 255
    2890:	ff e3       	ldi	r31, 0x3F	; 63
    2892:	f9 83       	std	Y+1, r31	; 0x01
    2894:	0d c0       	rjmp	.+26     	; 0x28b0 <vfprintf+0x108>
    2896:	83 36       	cpi	r24, 0x63	; 99
    2898:	31 f0       	breq	.+12     	; 0x28a6 <vfprintf+0xfe>
    289a:	83 37       	cpi	r24, 0x73	; 115
    289c:	71 f0       	breq	.+28     	; 0x28ba <vfprintf+0x112>
    289e:	83 35       	cpi	r24, 0x53	; 83
    28a0:	09 f0       	breq	.+2      	; 0x28a4 <vfprintf+0xfc>
    28a2:	5b c0       	rjmp	.+182    	; 0x295a <vfprintf+0x1b2>
    28a4:	22 c0       	rjmp	.+68     	; 0x28ea <vfprintf+0x142>
    28a6:	f8 01       	movw	r30, r16
    28a8:	80 81       	ld	r24, Z
    28aa:	89 83       	std	Y+1, r24	; 0x01
    28ac:	0e 5f       	subi	r16, 0xFE	; 254
    28ae:	1f 4f       	sbci	r17, 0xFF	; 255
    28b0:	44 24       	eor	r4, r4
    28b2:	43 94       	inc	r4
    28b4:	51 2c       	mov	r5, r1
    28b6:	54 01       	movw	r10, r8
    28b8:	15 c0       	rjmp	.+42     	; 0x28e4 <vfprintf+0x13c>
    28ba:	38 01       	movw	r6, r16
    28bc:	f2 e0       	ldi	r31, 0x02	; 2
    28be:	6f 0e       	add	r6, r31
    28c0:	71 1c       	adc	r7, r1
    28c2:	f8 01       	movw	r30, r16
    28c4:	a0 80       	ld	r10, Z
    28c6:	b1 80       	ldd	r11, Z+1	; 0x01
    28c8:	26 ff       	sbrs	r18, 6
    28ca:	03 c0       	rjmp	.+6      	; 0x28d2 <vfprintf+0x12a>
    28cc:	65 2d       	mov	r22, r5
    28ce:	70 e0       	ldi	r23, 0x00	; 0
    28d0:	02 c0       	rjmp	.+4      	; 0x28d6 <vfprintf+0x12e>
    28d2:	6f ef       	ldi	r22, 0xFF	; 255
    28d4:	7f ef       	ldi	r23, 0xFF	; 255
    28d6:	c5 01       	movw	r24, r10
    28d8:	2c 87       	std	Y+12, r18	; 0x0c
    28da:	0e 94 b1 15 	call	0x2b62	; 0x2b62 <strnlen>
    28de:	2c 01       	movw	r4, r24
    28e0:	83 01       	movw	r16, r6
    28e2:	2c 85       	ldd	r18, Y+12	; 0x0c
    28e4:	2f 77       	andi	r18, 0x7F	; 127
    28e6:	22 2e       	mov	r2, r18
    28e8:	17 c0       	rjmp	.+46     	; 0x2918 <vfprintf+0x170>
    28ea:	38 01       	movw	r6, r16
    28ec:	f2 e0       	ldi	r31, 0x02	; 2
    28ee:	6f 0e       	add	r6, r31
    28f0:	71 1c       	adc	r7, r1
    28f2:	f8 01       	movw	r30, r16
    28f4:	a0 80       	ld	r10, Z
    28f6:	b1 80       	ldd	r11, Z+1	; 0x01
    28f8:	26 ff       	sbrs	r18, 6
    28fa:	03 c0       	rjmp	.+6      	; 0x2902 <vfprintf+0x15a>
    28fc:	65 2d       	mov	r22, r5
    28fe:	70 e0       	ldi	r23, 0x00	; 0
    2900:	02 c0       	rjmp	.+4      	; 0x2906 <vfprintf+0x15e>
    2902:	6f ef       	ldi	r22, 0xFF	; 255
    2904:	7f ef       	ldi	r23, 0xFF	; 255
    2906:	c5 01       	movw	r24, r10
    2908:	2c 87       	std	Y+12, r18	; 0x0c
    290a:	0e 94 a6 15 	call	0x2b4c	; 0x2b4c <strnlen_P>
    290e:	2c 01       	movw	r4, r24
    2910:	2c 85       	ldd	r18, Y+12	; 0x0c
    2912:	20 68       	ori	r18, 0x80	; 128
    2914:	22 2e       	mov	r2, r18
    2916:	83 01       	movw	r16, r6
    2918:	23 fc       	sbrc	r2, 3
    291a:	1b c0       	rjmp	.+54     	; 0x2952 <vfprintf+0x1aa>
    291c:	83 2d       	mov	r24, r3
    291e:	90 e0       	ldi	r25, 0x00	; 0
    2920:	48 16       	cp	r4, r24
    2922:	59 06       	cpc	r5, r25
    2924:	b0 f4       	brcc	.+44     	; 0x2952 <vfprintf+0x1aa>
    2926:	b7 01       	movw	r22, r14
    2928:	80 e2       	ldi	r24, 0x20	; 32
    292a:	90 e0       	ldi	r25, 0x00	; 0
    292c:	0e 94 bc 15 	call	0x2b78	; 0x2b78 <fputc>
    2930:	3a 94       	dec	r3
    2932:	f4 cf       	rjmp	.-24     	; 0x291c <vfprintf+0x174>
    2934:	f5 01       	movw	r30, r10
    2936:	27 fc       	sbrc	r2, 7
    2938:	85 91       	lpm	r24, Z+
    293a:	27 fe       	sbrs	r2, 7
    293c:	81 91       	ld	r24, Z+
    293e:	5f 01       	movw	r10, r30
    2940:	b7 01       	movw	r22, r14
    2942:	90 e0       	ldi	r25, 0x00	; 0
    2944:	0e 94 bc 15 	call	0x2b78	; 0x2b78 <fputc>
    2948:	31 10       	cpse	r3, r1
    294a:	3a 94       	dec	r3
    294c:	f1 e0       	ldi	r31, 0x01	; 1
    294e:	4f 1a       	sub	r4, r31
    2950:	51 08       	sbc	r5, r1
    2952:	41 14       	cp	r4, r1
    2954:	51 04       	cpc	r5, r1
    2956:	71 f7       	brne	.-36     	; 0x2934 <vfprintf+0x18c>
    2958:	e5 c0       	rjmp	.+458    	; 0x2b24 <vfprintf+0x37c>
    295a:	84 36       	cpi	r24, 0x64	; 100
    295c:	11 f0       	breq	.+4      	; 0x2962 <vfprintf+0x1ba>
    295e:	89 36       	cpi	r24, 0x69	; 105
    2960:	39 f5       	brne	.+78     	; 0x29b0 <vfprintf+0x208>
    2962:	f8 01       	movw	r30, r16
    2964:	27 ff       	sbrs	r18, 7
    2966:	07 c0       	rjmp	.+14     	; 0x2976 <vfprintf+0x1ce>
    2968:	60 81       	ld	r22, Z
    296a:	71 81       	ldd	r23, Z+1	; 0x01
    296c:	82 81       	ldd	r24, Z+2	; 0x02
    296e:	93 81       	ldd	r25, Z+3	; 0x03
    2970:	0c 5f       	subi	r16, 0xFC	; 252
    2972:	1f 4f       	sbci	r17, 0xFF	; 255
    2974:	08 c0       	rjmp	.+16     	; 0x2986 <vfprintf+0x1de>
    2976:	60 81       	ld	r22, Z
    2978:	71 81       	ldd	r23, Z+1	; 0x01
    297a:	07 2e       	mov	r0, r23
    297c:	00 0c       	add	r0, r0
    297e:	88 0b       	sbc	r24, r24
    2980:	99 0b       	sbc	r25, r25
    2982:	0e 5f       	subi	r16, 0xFE	; 254
    2984:	1f 4f       	sbci	r17, 0xFF	; 255
    2986:	2f 76       	andi	r18, 0x6F	; 111
    2988:	72 2e       	mov	r7, r18
    298a:	97 ff       	sbrs	r25, 7
    298c:	09 c0       	rjmp	.+18     	; 0x29a0 <vfprintf+0x1f8>
    298e:	90 95       	com	r25
    2990:	80 95       	com	r24
    2992:	70 95       	com	r23
    2994:	61 95       	neg	r22
    2996:	7f 4f       	sbci	r23, 0xFF	; 255
    2998:	8f 4f       	sbci	r24, 0xFF	; 255
    299a:	9f 4f       	sbci	r25, 0xFF	; 255
    299c:	20 68       	ori	r18, 0x80	; 128
    299e:	72 2e       	mov	r7, r18
    29a0:	2a e0       	ldi	r18, 0x0A	; 10
    29a2:	30 e0       	ldi	r19, 0x00	; 0
    29a4:	a4 01       	movw	r20, r8
    29a6:	0e 94 f4 15 	call	0x2be8	; 0x2be8 <__ultoa_invert>
    29aa:	a8 2e       	mov	r10, r24
    29ac:	a8 18       	sub	r10, r8
    29ae:	44 c0       	rjmp	.+136    	; 0x2a38 <vfprintf+0x290>
    29b0:	85 37       	cpi	r24, 0x75	; 117
    29b2:	29 f4       	brne	.+10     	; 0x29be <vfprintf+0x216>
    29b4:	2f 7e       	andi	r18, 0xEF	; 239
    29b6:	b2 2e       	mov	r11, r18
    29b8:	2a e0       	ldi	r18, 0x0A	; 10
    29ba:	30 e0       	ldi	r19, 0x00	; 0
    29bc:	25 c0       	rjmp	.+74     	; 0x2a08 <vfprintf+0x260>
    29be:	f2 2f       	mov	r31, r18
    29c0:	f9 7f       	andi	r31, 0xF9	; 249
    29c2:	bf 2e       	mov	r11, r31
    29c4:	8f 36       	cpi	r24, 0x6F	; 111
    29c6:	c1 f0       	breq	.+48     	; 0x29f8 <vfprintf+0x250>
    29c8:	18 f4       	brcc	.+6      	; 0x29d0 <vfprintf+0x228>
    29ca:	88 35       	cpi	r24, 0x58	; 88
    29cc:	79 f0       	breq	.+30     	; 0x29ec <vfprintf+0x244>
    29ce:	b4 c0       	rjmp	.+360    	; 0x2b38 <vfprintf+0x390>
    29d0:	80 37       	cpi	r24, 0x70	; 112
    29d2:	19 f0       	breq	.+6      	; 0x29da <vfprintf+0x232>
    29d4:	88 37       	cpi	r24, 0x78	; 120
    29d6:	21 f0       	breq	.+8      	; 0x29e0 <vfprintf+0x238>
    29d8:	af c0       	rjmp	.+350    	; 0x2b38 <vfprintf+0x390>
    29da:	2f 2f       	mov	r18, r31
    29dc:	20 61       	ori	r18, 0x10	; 16
    29de:	b2 2e       	mov	r11, r18
    29e0:	b4 fe       	sbrs	r11, 4
    29e2:	0d c0       	rjmp	.+26     	; 0x29fe <vfprintf+0x256>
    29e4:	8b 2d       	mov	r24, r11
    29e6:	84 60       	ori	r24, 0x04	; 4
    29e8:	b8 2e       	mov	r11, r24
    29ea:	09 c0       	rjmp	.+18     	; 0x29fe <vfprintf+0x256>
    29ec:	24 ff       	sbrs	r18, 4
    29ee:	0a c0       	rjmp	.+20     	; 0x2a04 <vfprintf+0x25c>
    29f0:	9f 2f       	mov	r25, r31
    29f2:	96 60       	ori	r25, 0x06	; 6
    29f4:	b9 2e       	mov	r11, r25
    29f6:	06 c0       	rjmp	.+12     	; 0x2a04 <vfprintf+0x25c>
    29f8:	28 e0       	ldi	r18, 0x08	; 8
    29fa:	30 e0       	ldi	r19, 0x00	; 0
    29fc:	05 c0       	rjmp	.+10     	; 0x2a08 <vfprintf+0x260>
    29fe:	20 e1       	ldi	r18, 0x10	; 16
    2a00:	30 e0       	ldi	r19, 0x00	; 0
    2a02:	02 c0       	rjmp	.+4      	; 0x2a08 <vfprintf+0x260>
    2a04:	20 e1       	ldi	r18, 0x10	; 16
    2a06:	32 e0       	ldi	r19, 0x02	; 2
    2a08:	f8 01       	movw	r30, r16
    2a0a:	b7 fe       	sbrs	r11, 7
    2a0c:	07 c0       	rjmp	.+14     	; 0x2a1c <vfprintf+0x274>
    2a0e:	60 81       	ld	r22, Z
    2a10:	71 81       	ldd	r23, Z+1	; 0x01
    2a12:	82 81       	ldd	r24, Z+2	; 0x02
    2a14:	93 81       	ldd	r25, Z+3	; 0x03
    2a16:	0c 5f       	subi	r16, 0xFC	; 252
    2a18:	1f 4f       	sbci	r17, 0xFF	; 255
    2a1a:	06 c0       	rjmp	.+12     	; 0x2a28 <vfprintf+0x280>
    2a1c:	60 81       	ld	r22, Z
    2a1e:	71 81       	ldd	r23, Z+1	; 0x01
    2a20:	80 e0       	ldi	r24, 0x00	; 0
    2a22:	90 e0       	ldi	r25, 0x00	; 0
    2a24:	0e 5f       	subi	r16, 0xFE	; 254
    2a26:	1f 4f       	sbci	r17, 0xFF	; 255
    2a28:	a4 01       	movw	r20, r8
    2a2a:	0e 94 f4 15 	call	0x2be8	; 0x2be8 <__ultoa_invert>
    2a2e:	a8 2e       	mov	r10, r24
    2a30:	a8 18       	sub	r10, r8
    2a32:	fb 2d       	mov	r31, r11
    2a34:	ff 77       	andi	r31, 0x7F	; 127
    2a36:	7f 2e       	mov	r7, r31
    2a38:	76 fe       	sbrs	r7, 6
    2a3a:	0b c0       	rjmp	.+22     	; 0x2a52 <vfprintf+0x2aa>
    2a3c:	37 2d       	mov	r19, r7
    2a3e:	3e 7f       	andi	r19, 0xFE	; 254
    2a40:	a5 14       	cp	r10, r5
    2a42:	50 f4       	brcc	.+20     	; 0x2a58 <vfprintf+0x2b0>
    2a44:	74 fe       	sbrs	r7, 4
    2a46:	0a c0       	rjmp	.+20     	; 0x2a5c <vfprintf+0x2b4>
    2a48:	72 fc       	sbrc	r7, 2
    2a4a:	08 c0       	rjmp	.+16     	; 0x2a5c <vfprintf+0x2b4>
    2a4c:	37 2d       	mov	r19, r7
    2a4e:	3e 7e       	andi	r19, 0xEE	; 238
    2a50:	05 c0       	rjmp	.+10     	; 0x2a5c <vfprintf+0x2b4>
    2a52:	ba 2c       	mov	r11, r10
    2a54:	37 2d       	mov	r19, r7
    2a56:	03 c0       	rjmp	.+6      	; 0x2a5e <vfprintf+0x2b6>
    2a58:	ba 2c       	mov	r11, r10
    2a5a:	01 c0       	rjmp	.+2      	; 0x2a5e <vfprintf+0x2b6>
    2a5c:	b5 2c       	mov	r11, r5
    2a5e:	34 ff       	sbrs	r19, 4
    2a60:	0d c0       	rjmp	.+26     	; 0x2a7c <vfprintf+0x2d4>
    2a62:	fe 01       	movw	r30, r28
    2a64:	ea 0d       	add	r30, r10
    2a66:	f1 1d       	adc	r31, r1
    2a68:	80 81       	ld	r24, Z
    2a6a:	80 33       	cpi	r24, 0x30	; 48
    2a6c:	11 f4       	brne	.+4      	; 0x2a72 <vfprintf+0x2ca>
    2a6e:	39 7e       	andi	r19, 0xE9	; 233
    2a70:	09 c0       	rjmp	.+18     	; 0x2a84 <vfprintf+0x2dc>
    2a72:	32 ff       	sbrs	r19, 2
    2a74:	06 c0       	rjmp	.+12     	; 0x2a82 <vfprintf+0x2da>
    2a76:	b3 94       	inc	r11
    2a78:	b3 94       	inc	r11
    2a7a:	04 c0       	rjmp	.+8      	; 0x2a84 <vfprintf+0x2dc>
    2a7c:	83 2f       	mov	r24, r19
    2a7e:	86 78       	andi	r24, 0x86	; 134
    2a80:	09 f0       	breq	.+2      	; 0x2a84 <vfprintf+0x2dc>
    2a82:	b3 94       	inc	r11
    2a84:	33 fd       	sbrc	r19, 3
    2a86:	13 c0       	rjmp	.+38     	; 0x2aae <vfprintf+0x306>
    2a88:	30 ff       	sbrs	r19, 0
    2a8a:	06 c0       	rjmp	.+12     	; 0x2a98 <vfprintf+0x2f0>
    2a8c:	5a 2c       	mov	r5, r10
    2a8e:	b3 14       	cp	r11, r3
    2a90:	18 f4       	brcc	.+6      	; 0x2a98 <vfprintf+0x2f0>
    2a92:	53 0c       	add	r5, r3
    2a94:	5b 18       	sub	r5, r11
    2a96:	b3 2c       	mov	r11, r3
    2a98:	b3 14       	cp	r11, r3
    2a9a:	68 f4       	brcc	.+26     	; 0x2ab6 <vfprintf+0x30e>
    2a9c:	b7 01       	movw	r22, r14
    2a9e:	80 e2       	ldi	r24, 0x20	; 32
    2aa0:	90 e0       	ldi	r25, 0x00	; 0
    2aa2:	3c 87       	std	Y+12, r19	; 0x0c
    2aa4:	0e 94 bc 15 	call	0x2b78	; 0x2b78 <fputc>
    2aa8:	b3 94       	inc	r11
    2aaa:	3c 85       	ldd	r19, Y+12	; 0x0c
    2aac:	f5 cf       	rjmp	.-22     	; 0x2a98 <vfprintf+0x2f0>
    2aae:	b3 14       	cp	r11, r3
    2ab0:	10 f4       	brcc	.+4      	; 0x2ab6 <vfprintf+0x30e>
    2ab2:	3b 18       	sub	r3, r11
    2ab4:	01 c0       	rjmp	.+2      	; 0x2ab8 <vfprintf+0x310>
    2ab6:	31 2c       	mov	r3, r1
    2ab8:	34 ff       	sbrs	r19, 4
    2aba:	12 c0       	rjmp	.+36     	; 0x2ae0 <vfprintf+0x338>
    2abc:	b7 01       	movw	r22, r14
    2abe:	80 e3       	ldi	r24, 0x30	; 48
    2ac0:	90 e0       	ldi	r25, 0x00	; 0
    2ac2:	3c 87       	std	Y+12, r19	; 0x0c
    2ac4:	0e 94 bc 15 	call	0x2b78	; 0x2b78 <fputc>
    2ac8:	3c 85       	ldd	r19, Y+12	; 0x0c
    2aca:	32 ff       	sbrs	r19, 2
    2acc:	17 c0       	rjmp	.+46     	; 0x2afc <vfprintf+0x354>
    2ace:	31 fd       	sbrc	r19, 1
    2ad0:	03 c0       	rjmp	.+6      	; 0x2ad8 <vfprintf+0x330>
    2ad2:	88 e7       	ldi	r24, 0x78	; 120
    2ad4:	90 e0       	ldi	r25, 0x00	; 0
    2ad6:	02 c0       	rjmp	.+4      	; 0x2adc <vfprintf+0x334>
    2ad8:	88 e5       	ldi	r24, 0x58	; 88
    2ada:	90 e0       	ldi	r25, 0x00	; 0
    2adc:	b7 01       	movw	r22, r14
    2ade:	0c c0       	rjmp	.+24     	; 0x2af8 <vfprintf+0x350>
    2ae0:	83 2f       	mov	r24, r19
    2ae2:	86 78       	andi	r24, 0x86	; 134
    2ae4:	59 f0       	breq	.+22     	; 0x2afc <vfprintf+0x354>
    2ae6:	31 ff       	sbrs	r19, 1
    2ae8:	02 c0       	rjmp	.+4      	; 0x2aee <vfprintf+0x346>
    2aea:	8b e2       	ldi	r24, 0x2B	; 43
    2aec:	01 c0       	rjmp	.+2      	; 0x2af0 <vfprintf+0x348>
    2aee:	80 e2       	ldi	r24, 0x20	; 32
    2af0:	37 fd       	sbrc	r19, 7
    2af2:	8d e2       	ldi	r24, 0x2D	; 45
    2af4:	b7 01       	movw	r22, r14
    2af6:	90 e0       	ldi	r25, 0x00	; 0
    2af8:	0e 94 bc 15 	call	0x2b78	; 0x2b78 <fputc>
    2afc:	a5 14       	cp	r10, r5
    2afe:	38 f4       	brcc	.+14     	; 0x2b0e <vfprintf+0x366>
    2b00:	b7 01       	movw	r22, r14
    2b02:	80 e3       	ldi	r24, 0x30	; 48
    2b04:	90 e0       	ldi	r25, 0x00	; 0
    2b06:	0e 94 bc 15 	call	0x2b78	; 0x2b78 <fputc>
    2b0a:	5a 94       	dec	r5
    2b0c:	f7 cf       	rjmp	.-18     	; 0x2afc <vfprintf+0x354>
    2b0e:	aa 94       	dec	r10
    2b10:	f4 01       	movw	r30, r8
    2b12:	ea 0d       	add	r30, r10
    2b14:	f1 1d       	adc	r31, r1
    2b16:	80 81       	ld	r24, Z
    2b18:	b7 01       	movw	r22, r14
    2b1a:	90 e0       	ldi	r25, 0x00	; 0
    2b1c:	0e 94 bc 15 	call	0x2b78	; 0x2b78 <fputc>
    2b20:	a1 10       	cpse	r10, r1
    2b22:	f5 cf       	rjmp	.-22     	; 0x2b0e <vfprintf+0x366>
    2b24:	33 20       	and	r3, r3
    2b26:	09 f4       	brne	.+2      	; 0x2b2a <vfprintf+0x382>
    2b28:	51 ce       	rjmp	.-862    	; 0x27cc <vfprintf+0x24>
    2b2a:	b7 01       	movw	r22, r14
    2b2c:	80 e2       	ldi	r24, 0x20	; 32
    2b2e:	90 e0       	ldi	r25, 0x00	; 0
    2b30:	0e 94 bc 15 	call	0x2b78	; 0x2b78 <fputc>
    2b34:	3a 94       	dec	r3
    2b36:	f6 cf       	rjmp	.-20     	; 0x2b24 <vfprintf+0x37c>
    2b38:	f7 01       	movw	r30, r14
    2b3a:	86 81       	ldd	r24, Z+6	; 0x06
    2b3c:	97 81       	ldd	r25, Z+7	; 0x07
    2b3e:	02 c0       	rjmp	.+4      	; 0x2b44 <vfprintf+0x39c>
    2b40:	8f ef       	ldi	r24, 0xFF	; 255
    2b42:	9f ef       	ldi	r25, 0xFF	; 255
    2b44:	2c 96       	adiw	r28, 0x0c	; 12
    2b46:	e2 e1       	ldi	r30, 0x12	; 18
    2b48:	0c 94 6e 16 	jmp	0x2cdc	; 0x2cdc <__epilogue_restores__>

00002b4c <strnlen_P>:
    2b4c:	fc 01       	movw	r30, r24
    2b4e:	05 90       	lpm	r0, Z+
    2b50:	61 50       	subi	r22, 0x01	; 1
    2b52:	70 40       	sbci	r23, 0x00	; 0
    2b54:	01 10       	cpse	r0, r1
    2b56:	d8 f7       	brcc	.-10     	; 0x2b4e <strnlen_P+0x2>
    2b58:	80 95       	com	r24
    2b5a:	90 95       	com	r25
    2b5c:	8e 0f       	add	r24, r30
    2b5e:	9f 1f       	adc	r25, r31
    2b60:	08 95       	ret

00002b62 <strnlen>:
    2b62:	fc 01       	movw	r30, r24
    2b64:	61 50       	subi	r22, 0x01	; 1
    2b66:	70 40       	sbci	r23, 0x00	; 0
    2b68:	01 90       	ld	r0, Z+
    2b6a:	01 10       	cpse	r0, r1
    2b6c:	d8 f7       	brcc	.-10     	; 0x2b64 <strnlen+0x2>
    2b6e:	80 95       	com	r24
    2b70:	90 95       	com	r25
    2b72:	8e 0f       	add	r24, r30
    2b74:	9f 1f       	adc	r25, r31
    2b76:	08 95       	ret

00002b78 <fputc>:
    2b78:	0f 93       	push	r16
    2b7a:	1f 93       	push	r17
    2b7c:	cf 93       	push	r28
    2b7e:	df 93       	push	r29
    2b80:	fb 01       	movw	r30, r22
    2b82:	23 81       	ldd	r18, Z+3	; 0x03
    2b84:	21 fd       	sbrc	r18, 1
    2b86:	03 c0       	rjmp	.+6      	; 0x2b8e <fputc+0x16>
    2b88:	8f ef       	ldi	r24, 0xFF	; 255
    2b8a:	9f ef       	ldi	r25, 0xFF	; 255
    2b8c:	28 c0       	rjmp	.+80     	; 0x2bde <fputc+0x66>
    2b8e:	22 ff       	sbrs	r18, 2
    2b90:	16 c0       	rjmp	.+44     	; 0x2bbe <fputc+0x46>
    2b92:	46 81       	ldd	r20, Z+6	; 0x06
    2b94:	57 81       	ldd	r21, Z+7	; 0x07
    2b96:	24 81       	ldd	r18, Z+4	; 0x04
    2b98:	35 81       	ldd	r19, Z+5	; 0x05
    2b9a:	42 17       	cp	r20, r18
    2b9c:	53 07       	cpc	r21, r19
    2b9e:	44 f4       	brge	.+16     	; 0x2bb0 <fputc+0x38>
    2ba0:	a0 81       	ld	r26, Z
    2ba2:	b1 81       	ldd	r27, Z+1	; 0x01
    2ba4:	9d 01       	movw	r18, r26
    2ba6:	2f 5f       	subi	r18, 0xFF	; 255
    2ba8:	3f 4f       	sbci	r19, 0xFF	; 255
    2baa:	31 83       	std	Z+1, r19	; 0x01
    2bac:	20 83       	st	Z, r18
    2bae:	8c 93       	st	X, r24
    2bb0:	26 81       	ldd	r18, Z+6	; 0x06
    2bb2:	37 81       	ldd	r19, Z+7	; 0x07
    2bb4:	2f 5f       	subi	r18, 0xFF	; 255
    2bb6:	3f 4f       	sbci	r19, 0xFF	; 255
    2bb8:	37 83       	std	Z+7, r19	; 0x07
    2bba:	26 83       	std	Z+6, r18	; 0x06
    2bbc:	10 c0       	rjmp	.+32     	; 0x2bde <fputc+0x66>
    2bbe:	eb 01       	movw	r28, r22
    2bc0:	09 2f       	mov	r16, r25
    2bc2:	18 2f       	mov	r17, r24
    2bc4:	00 84       	ldd	r0, Z+8	; 0x08
    2bc6:	f1 85       	ldd	r31, Z+9	; 0x09
    2bc8:	e0 2d       	mov	r30, r0
    2bca:	09 95       	icall
    2bcc:	89 2b       	or	r24, r25
    2bce:	e1 f6       	brne	.-72     	; 0x2b88 <fputc+0x10>
    2bd0:	8e 81       	ldd	r24, Y+6	; 0x06
    2bd2:	9f 81       	ldd	r25, Y+7	; 0x07
    2bd4:	01 96       	adiw	r24, 0x01	; 1
    2bd6:	9f 83       	std	Y+7, r25	; 0x07
    2bd8:	8e 83       	std	Y+6, r24	; 0x06
    2bda:	81 2f       	mov	r24, r17
    2bdc:	90 2f       	mov	r25, r16
    2bde:	df 91       	pop	r29
    2be0:	cf 91       	pop	r28
    2be2:	1f 91       	pop	r17
    2be4:	0f 91       	pop	r16
    2be6:	08 95       	ret

00002be8 <__ultoa_invert>:
    2be8:	fa 01       	movw	r30, r20
    2bea:	aa 27       	eor	r26, r26
    2bec:	28 30       	cpi	r18, 0x08	; 8
    2bee:	51 f1       	breq	.+84     	; 0x2c44 <__ultoa_invert+0x5c>
    2bf0:	20 31       	cpi	r18, 0x10	; 16
    2bf2:	81 f1       	breq	.+96     	; 0x2c54 <__ultoa_invert+0x6c>
    2bf4:	e8 94       	clt
    2bf6:	6f 93       	push	r22
    2bf8:	6e 7f       	andi	r22, 0xFE	; 254
    2bfa:	6e 5f       	subi	r22, 0xFE	; 254
    2bfc:	7f 4f       	sbci	r23, 0xFF	; 255
    2bfe:	8f 4f       	sbci	r24, 0xFF	; 255
    2c00:	9f 4f       	sbci	r25, 0xFF	; 255
    2c02:	af 4f       	sbci	r26, 0xFF	; 255
    2c04:	b1 e0       	ldi	r27, 0x01	; 1
    2c06:	3e d0       	rcall	.+124    	; 0x2c84 <__ultoa_invert+0x9c>
    2c08:	b4 e0       	ldi	r27, 0x04	; 4
    2c0a:	3c d0       	rcall	.+120    	; 0x2c84 <__ultoa_invert+0x9c>
    2c0c:	67 0f       	add	r22, r23
    2c0e:	78 1f       	adc	r23, r24
    2c10:	89 1f       	adc	r24, r25
    2c12:	9a 1f       	adc	r25, r26
    2c14:	a1 1d       	adc	r26, r1
    2c16:	68 0f       	add	r22, r24
    2c18:	79 1f       	adc	r23, r25
    2c1a:	8a 1f       	adc	r24, r26
    2c1c:	91 1d       	adc	r25, r1
    2c1e:	a1 1d       	adc	r26, r1
    2c20:	6a 0f       	add	r22, r26
    2c22:	71 1d       	adc	r23, r1
    2c24:	81 1d       	adc	r24, r1
    2c26:	91 1d       	adc	r25, r1
    2c28:	a1 1d       	adc	r26, r1
    2c2a:	20 d0       	rcall	.+64     	; 0x2c6c <__ultoa_invert+0x84>
    2c2c:	09 f4       	brne	.+2      	; 0x2c30 <__ultoa_invert+0x48>
    2c2e:	68 94       	set
    2c30:	3f 91       	pop	r19
    2c32:	2a e0       	ldi	r18, 0x0A	; 10
    2c34:	26 9f       	mul	r18, r22
    2c36:	11 24       	eor	r1, r1
    2c38:	30 19       	sub	r19, r0
    2c3a:	30 5d       	subi	r19, 0xD0	; 208
    2c3c:	31 93       	st	Z+, r19
    2c3e:	de f6       	brtc	.-74     	; 0x2bf6 <__ultoa_invert+0xe>
    2c40:	cf 01       	movw	r24, r30
    2c42:	08 95       	ret
    2c44:	46 2f       	mov	r20, r22
    2c46:	47 70       	andi	r20, 0x07	; 7
    2c48:	40 5d       	subi	r20, 0xD0	; 208
    2c4a:	41 93       	st	Z+, r20
    2c4c:	b3 e0       	ldi	r27, 0x03	; 3
    2c4e:	0f d0       	rcall	.+30     	; 0x2c6e <__ultoa_invert+0x86>
    2c50:	c9 f7       	brne	.-14     	; 0x2c44 <__ultoa_invert+0x5c>
    2c52:	f6 cf       	rjmp	.-20     	; 0x2c40 <__ultoa_invert+0x58>
    2c54:	46 2f       	mov	r20, r22
    2c56:	4f 70       	andi	r20, 0x0F	; 15
    2c58:	40 5d       	subi	r20, 0xD0	; 208
    2c5a:	4a 33       	cpi	r20, 0x3A	; 58
    2c5c:	18 f0       	brcs	.+6      	; 0x2c64 <__ultoa_invert+0x7c>
    2c5e:	49 5d       	subi	r20, 0xD9	; 217
    2c60:	31 fd       	sbrc	r19, 1
    2c62:	40 52       	subi	r20, 0x20	; 32
    2c64:	41 93       	st	Z+, r20
    2c66:	02 d0       	rcall	.+4      	; 0x2c6c <__ultoa_invert+0x84>
    2c68:	a9 f7       	brne	.-22     	; 0x2c54 <__ultoa_invert+0x6c>
    2c6a:	ea cf       	rjmp	.-44     	; 0x2c40 <__ultoa_invert+0x58>
    2c6c:	b4 e0       	ldi	r27, 0x04	; 4
    2c6e:	a6 95       	lsr	r26
    2c70:	97 95       	ror	r25
    2c72:	87 95       	ror	r24
    2c74:	77 95       	ror	r23
    2c76:	67 95       	ror	r22
    2c78:	ba 95       	dec	r27
    2c7a:	c9 f7       	brne	.-14     	; 0x2c6e <__ultoa_invert+0x86>
    2c7c:	00 97       	sbiw	r24, 0x00	; 0
    2c7e:	61 05       	cpc	r22, r1
    2c80:	71 05       	cpc	r23, r1
    2c82:	08 95       	ret
    2c84:	9b 01       	movw	r18, r22
    2c86:	ac 01       	movw	r20, r24
    2c88:	0a 2e       	mov	r0, r26
    2c8a:	06 94       	lsr	r0
    2c8c:	57 95       	ror	r21
    2c8e:	47 95       	ror	r20
    2c90:	37 95       	ror	r19
    2c92:	27 95       	ror	r18
    2c94:	ba 95       	dec	r27
    2c96:	c9 f7       	brne	.-14     	; 0x2c8a <__ultoa_invert+0xa2>
    2c98:	62 0f       	add	r22, r18
    2c9a:	73 1f       	adc	r23, r19
    2c9c:	84 1f       	adc	r24, r20
    2c9e:	95 1f       	adc	r25, r21
    2ca0:	a0 1d       	adc	r26, r0
    2ca2:	08 95       	ret

00002ca4 <__prologue_saves__>:
    2ca4:	2f 92       	push	r2
    2ca6:	3f 92       	push	r3
    2ca8:	4f 92       	push	r4
    2caa:	5f 92       	push	r5
    2cac:	6f 92       	push	r6
    2cae:	7f 92       	push	r7
    2cb0:	8f 92       	push	r8
    2cb2:	9f 92       	push	r9
    2cb4:	af 92       	push	r10
    2cb6:	bf 92       	push	r11
    2cb8:	cf 92       	push	r12
    2cba:	df 92       	push	r13
    2cbc:	ef 92       	push	r14
    2cbe:	ff 92       	push	r15
    2cc0:	0f 93       	push	r16
    2cc2:	1f 93       	push	r17
    2cc4:	cf 93       	push	r28
    2cc6:	df 93       	push	r29
    2cc8:	cd b7       	in	r28, 0x3d	; 61
    2cca:	de b7       	in	r29, 0x3e	; 62
    2ccc:	ca 1b       	sub	r28, r26
    2cce:	db 0b       	sbc	r29, r27
    2cd0:	0f b6       	in	r0, 0x3f	; 63
    2cd2:	f8 94       	cli
    2cd4:	de bf       	out	0x3e, r29	; 62
    2cd6:	0f be       	out	0x3f, r0	; 63
    2cd8:	cd bf       	out	0x3d, r28	; 61
    2cda:	09 94       	ijmp

00002cdc <__epilogue_restores__>:
    2cdc:	2a 88       	ldd	r2, Y+18	; 0x12
    2cde:	39 88       	ldd	r3, Y+17	; 0x11
    2ce0:	48 88       	ldd	r4, Y+16	; 0x10
    2ce2:	5f 84       	ldd	r5, Y+15	; 0x0f
    2ce4:	6e 84       	ldd	r6, Y+14	; 0x0e
    2ce6:	7d 84       	ldd	r7, Y+13	; 0x0d
    2ce8:	8c 84       	ldd	r8, Y+12	; 0x0c
    2cea:	9b 84       	ldd	r9, Y+11	; 0x0b
    2cec:	aa 84       	ldd	r10, Y+10	; 0x0a
    2cee:	b9 84       	ldd	r11, Y+9	; 0x09
    2cf0:	c8 84       	ldd	r12, Y+8	; 0x08
    2cf2:	df 80       	ldd	r13, Y+7	; 0x07
    2cf4:	ee 80       	ldd	r14, Y+6	; 0x06
    2cf6:	fd 80       	ldd	r15, Y+5	; 0x05
    2cf8:	0c 81       	ldd	r16, Y+4	; 0x04
    2cfa:	1b 81       	ldd	r17, Y+3	; 0x03
    2cfc:	aa 81       	ldd	r26, Y+2	; 0x02
    2cfe:	b9 81       	ldd	r27, Y+1	; 0x01
    2d00:	ce 0f       	add	r28, r30
    2d02:	d1 1d       	adc	r29, r1
    2d04:	0f b6       	in	r0, 0x3f	; 63
    2d06:	f8 94       	cli
    2d08:	de bf       	out	0x3e, r29	; 62
    2d0a:	0f be       	out	0x3f, r0	; 63
    2d0c:	cd bf       	out	0x3d, r28	; 61
    2d0e:	ed 01       	movw	r28, r26
    2d10:	08 95       	ret

00002d12 <_exit>:
    2d12:	f8 94       	cli

00002d14 <__stop_program>:
    2d14:	ff cf       	rjmp	.-2      	; 0x2d14 <__stop_program>
